; generated by ARM C/C++ Compiler, 4.1 [Build 481]
; commandline ArmCC [--debug -c --asm --interleave -o.\Obj\menu.o --depend=.\Obj\menu.d --cpu=Cortex-M3 --apcs=interwork -O0 -I..\Libraries\CMSIS\CM3\CoreSupport -I..\Libraries\CMSIS\CM3\DeviceSupport\ST\STM32F10x\startup\arm -I..\Libraries\CMSIS\CM3\DeviceSupport\ST\STM32F10x -I..\Libraries\STM32F10x_StdPeriph_Driver\inc -I..\User -I..\BaseDrive -I..\Ucosii -I..\Ucosii\Port -I..\Ucosii\Src -I..\Ucosii\Include -I..\Ucgui -I..\Ucgui\Config -I..\Ucgui\GUI_X -I..\Ucgui\GUI -I..\Ucgui\GUI\ConvertColor -I..\Ucgui\GUI\ConvertMono -I..\Ucgui\GUI\Core -I..\Ucgui\GUI\Core -I..\Ucgui\GUI\LCDDriver -I..\Ucgui\GUI\MultiLayer -I..\Ucgui\GUI\Widget -I..\Ucgui\GUI\WM -I..\ExternalDrive\Lcd -I..\ExternalDrive\Touch -I..\Panel -ID:\Keil\ARM\INC -ID:\Keil\ARM\INC\ST\STM32F10x -D__MICROLIB -DSTM32F10X_HD -DUSE_STDPERIPH_DRIVER --omf_browse=.\Obj\menu.crf ..\Ucgui\GUI\Widget\MENU.c]
                          THUMB

                          AREA ||.text||, CODE, READONLY, ALIGN=2

                  MENU__SendMenuMessage PROC
;;;1110   */
;;;1111   int MENU__SendMenuMessage(MENU_Handle hObj, WM_HWIN hDestWin, U16 MsgType, U16 ItemId) {
000000  e92d41ff          PUSH     {r0-r8,lr}
000004  4605              MOV      r5,r0
000006  460c              MOV      r4,r1
000008  4616              MOV      r6,r2
00000a  461f              MOV      r7,r3
;;;1112     MENU_MSG_DATA MsgData;
;;;1113     WM_MESSAGE    Msg = {0};
00000c  2000              MOVS     r0,#0
00000e  9000              STR      r0,[sp,#0]
000010  9001              STR      r0,[sp,#4]
000012  9002              STR      r0,[sp,#8]
;;;1114     MsgData.MsgType   = MsgType;
000014  f8ad600c          STRH     r6,[sp,#0xc]
;;;1115     MsgData.ItemId    = ItemId;
000018  f8ad700e          STRH     r7,[sp,#0xe]
;;;1116     Msg.MsgId         = WM_MENU;
00001c  202c              MOVS     r0,#0x2c
00001e  9000              STR      r0,[sp,#0]
;;;1117     Msg.Data.p        = &MsgData;
000020  a803              ADD      r0,sp,#0xc
000022  9002              STR      r0,[sp,#8]
;;;1118     Msg.hWinSrc       = hObj;
000024  f8ad5006          STRH     r5,[sp,#6]
;;;1119     if (!hDestWin) {
000028  b91c              CBNZ     r4,|L1.50|
;;;1120       hDestWin = WM_GetParent(hObj);
00002a  4628              MOV      r0,r5
00002c  f7fffffe          BL       WM_GetParent
000030  4604              MOV      r4,r0
                  |L1.50|
;;;1121     }
;;;1122     if (hDestWin) {
000032  b13c              CBZ      r4,|L1.68|
;;;1123       WM__SendMessage(hDestWin, &Msg);
000034  4669              MOV      r1,sp
000036  4620              MOV      r0,r4
000038  f7fffffe          BL       WM__SendMessage
;;;1124       return Msg.Data.v;
00003c  9802              LDR      r0,[sp,#8]
                  |L1.62|
;;;1125     }
;;;1126     return 0;
;;;1127   }
00003e  b004              ADD      sp,sp,#0x10
000040  e8bd81f0          POP      {r4-r8,pc}
                  |L1.68|
000044  2000              MOVS     r0,#0                 ;1126
000046  e7fa              B        |L1.62|
;;;1128   
                          ENDP

                  _IsTopLevelMenu PROC
;;;186    */
;;;187    static char _IsTopLevelMenu(MENU_Handle hObj, const MENU_Obj* pObj) {
000048  b570              PUSH     {r4-r6,lr}
00004a  4605              MOV      r5,r0
00004c  460c              MOV      r4,r1
;;;188      if (MENU__SendMenuMessage(hObj, pObj->hOwner, MENU_IS_MENU, 0) == 0) {
00004e  f9b4105c          LDRSH    r1,[r4,#0x5c]
000052  2300              MOVS     r3,#0
000054  2205              MOVS     r2,#5
000056  4628              MOV      r0,r5
000058  f7fffffe          BL       MENU__SendMenuMessage
00005c  b908              CBNZ     r0,|L1.98|
;;;189        return 1;
00005e  2001              MOVS     r0,#1
                  |L1.96|
;;;190      }
;;;191      return 0;
;;;192    }
000060  bd70              POP      {r4-r6,pc}
                  |L1.98|
000062  2000              MOVS     r0,#0                 ;191
000064  e7fc              B        |L1.96|
;;;193    
                          ENDP

                  _HasEffect PROC
;;;197    */
;;;198    static int _HasEffect(MENU_Handle hObj, MENU_Obj* pObj) {
000066  b570              PUSH     {r4-r6,lr}
000068  4605              MOV      r5,r0
00006a  460c              MOV      r4,r1
;;;199      if (!(pObj->Flags & MENU_SF_POPUP)) {
00006c  f8b4005e          LDRH     r0,[r4,#0x5e]
000070  f0100f80          TST      r0,#0x80
000074  d106              BNE      |L1.132|
;;;200        if (_IsTopLevelMenu(hObj, pObj)) {
000076  4621              MOV      r1,r4
000078  4628              MOV      r0,r5
00007a  f7fffffe          BL       _IsTopLevelMenu
00007e  b108              CBZ      r0,|L1.132|
;;;201          return 0;
000080  2000              MOVS     r0,#0
                  |L1.130|
;;;202        }
;;;203      }
;;;204      return 1;
;;;205    }
000082  bd70              POP      {r4-r6,pc}
                  |L1.132|
000084  2001              MOVS     r0,#1                 ;204
000086  e7fc              B        |L1.130|
;;;206    
                          ENDP

                  _GetEffectSize PROC
;;;210    */
;;;211    static int _GetEffectSize(MENU_Handle hObj, MENU_Obj* pObj) {
000088  b570              PUSH     {r4-r6,lr}
00008a  4605              MOV      r5,r0
00008c  460c              MOV      r4,r1
;;;212      int r = 0;
00008e  2600              MOVS     r6,#0
;;;213      if (_HasEffect(hObj, pObj)) { 
000090  4621              MOV      r1,r4
000092  4628              MOV      r0,r5
000094  f7fffffe          BL       _HasEffect
000098  b108              CBZ      r0,|L1.158|
;;;214        r = pObj->Widget.pEffect->EffectSize;
00009a  6a20              LDR      r0,[r4,#0x20]
00009c  6946              LDR      r6,[r0,#0x14]
                  |L1.158|
;;;215      }
;;;216      return r;
00009e  4630              MOV      r0,r6
;;;217    }
0000a0  bd70              POP      {r4-r6,pc}
;;;218    
                          ENDP

                  _CalcTextWidth PROC
;;;222    */
;;;223    static int _CalcTextWidth(MENU_Obj* pObj, const char GUI_UNI_PTR* sText) {
0000a2  e92d41f0          PUSH     {r4-r8,lr}
0000a6  4605              MOV      r5,r0
0000a8  460c              MOV      r4,r1
;;;224      int TextWidth = 0;
0000aa  2600              MOVS     r6,#0
;;;225      if (sText) {
0000ac  b15c              CBZ      r4,|L1.198|
;;;226        const GUI_FONT GUI_UNI_PTR* pOldFont;
;;;227        pOldFont  = GUI_SetFont(pObj->Props.pFont);
0000ae  6d68              LDR      r0,[r5,#0x54]
0000b0  f7fffffe          BL       GUI_SetFont
0000b4  4607              MOV      r7,r0
;;;228        TextWidth = GUI_GetStringDistX(sText);
0000b6  4620              MOV      r0,r4
0000b8  f7fffffe          BL       GUI_GetStringDistX
0000bc  4606              MOV      r6,r0
;;;229        GUI_SetFont(pOldFont);
0000be  4638              MOV      r0,r7
0000c0  f7fffffe          BL       GUI_SetFont
;;;230      }
0000c4  bf00              NOP      
                  |L1.198|
;;;231      return TextWidth;
0000c6  4630              MOV      r0,r6
;;;232    }
0000c8  e8bd81f0          POP      {r4-r8,pc}
;;;233    
                          ENDP

                  _GetItemWidth PROC
;;;237    */
;;;238    static int _GetItemWidth(MENU_Handle hObj, MENU_Obj* pObj, unsigned Index) {
0000cc  e92d41f0          PUSH     {r4-r8,lr}
0000d0  4680              MOV      r8,r0
0000d2  460c              MOV      r4,r1
0000d4  4616              MOV      r6,r2
;;;239      int ItemWidth;
;;;240      if (pObj->Width && (pObj->Flags & MENU_SF_VERTICAL)) {
0000d6  6e60              LDR      r0,[r4,#0x64]
0000d8  b160              CBZ      r0,|L1.244|
0000da  f8b4005e          LDRH     r0,[r4,#0x5e]
0000de  f0100f01          TST      r0,#1
0000e2  d007              BEQ      |L1.244|
;;;241        ItemWidth = pObj->Width - (_GetEffectSize(hObj, pObj) << 1);
0000e4  4621              MOV      r1,r4
0000e6  4640              MOV      r0,r8
0000e8  f7fffffe          BL       _GetEffectSize
0000ec  6e61              LDR      r1,[r4,#0x64]
0000ee  eba10540          SUB      r5,r1,r0,LSL #1
0000f2  e018              B        |L1.294|
                  |L1.244|
;;;242      } else {
;;;243        MENU_ITEM* pItem = (MENU_ITEM*)GUI_ARRAY_GetpItem(&pObj->ItemArray, Index);
0000f4  4631              MOV      r1,r6
0000f6  f1040058          ADD      r0,r4,#0x58
0000fa  f7fffffe          BL       GUI_ARRAY_GetpItem
0000fe  4607              MOV      r7,r0
;;;244        if ((pObj->Flags & MENU_SF_VERTICAL) || !(pItem->Flags & MENU_IF_SEPARATOR)) {
000100  f8b4005e          LDRH     r0,[r4,#0x5e]
000104  f0100f01          TST      r0,#1
000108  d103              BNE      |L1.274|
00010a  88b8              LDRH     r0,[r7,#4]
00010c  f0100f02          TST      r0,#2
000110  d101              BNE      |L1.278|
                  |L1.274|
;;;245          ItemWidth = pItem->TextWidth;
000112  68bd              LDR      r5,[r7,#8]
000114  e000              B        |L1.280|
                  |L1.278|
;;;246        } else {
;;;247          ItemWidth = 3;
000116  2503              MOVS     r5,#3
                  |L1.280|
;;;248       }
;;;249        ItemWidth += pObj->Props.aBorder[MENU_BI_LEFT] + pObj->Props.aBorder[MENU_BI_RIGHT];
000118  f8941050          LDRB     r1,[r4,#0x50]
00011c  f8940051          LDRB     r0,[r4,#0x51]
000120  4408              ADD      r0,r0,r1
000122  4405              ADD      r5,r5,r0
;;;250      }
000124  bf00              NOP      
                  |L1.294|
;;;251      return ItemWidth;
000126  4628              MOV      r0,r5
;;;252    }
000128  e8bd81f0          POP      {r4-r8,pc}
;;;253    
                          ENDP

                  _GetItemHeight PROC
;;;257    */
;;;258    static int _GetItemHeight(MENU_Handle hObj, MENU_Obj* pObj, unsigned Index) {
00012c  e92d41f0          PUSH     {r4-r8,lr}
000130  4607              MOV      r7,r0
000132  460c              MOV      r4,r1
000134  4616              MOV      r6,r2
;;;259      int ItemHeight;
;;;260      if (pObj->Height && !(pObj->Flags & MENU_SF_VERTICAL)) {
000136  6ea0              LDR      r0,[r4,#0x68]
000138  b160              CBZ      r0,|L1.340|
00013a  f8b4005e          LDRH     r0,[r4,#0x5e]
00013e  f0100f01          TST      r0,#1
000142  d107              BNE      |L1.340|
;;;261        ItemHeight = pObj->Height - (_GetEffectSize(hObj, pObj) << 1);
000144  4621              MOV      r1,r4
000146  4638              MOV      r0,r7
000148  f7fffffe          BL       _GetEffectSize
00014c  6ea1              LDR      r1,[r4,#0x68]
00014e  eba10540          SUB      r5,r1,r0,LSL #1
000152  e01b              B        |L1.396|
                  |L1.340|
;;;262      } else {
;;;263        ItemHeight = GUI_GetYDistOfFont(pObj->Props.pFont);
000154  6d60              LDR      r0,[r4,#0x54]
000156  f7fffffe          BL       GUI_GetYDistOfFont
00015a  4605              MOV      r5,r0
;;;264        if (pObj->Flags & MENU_SF_VERTICAL) {
00015c  f8b4005e          LDRH     r0,[r4,#0x5e]
000160  f0100f01          TST      r0,#1
000164  d00c              BEQ      |L1.384|
;;;265          MENU_ITEM* pItem = (MENU_ITEM*)GUI_ARRAY_GetpItem(&pObj->ItemArray, Index);
000166  4631              MOV      r1,r6
000168  f1040058          ADD      r0,r4,#0x58
00016c  f7fffffe          BL       GUI_ARRAY_GetpItem
000170  4680              MOV      r8,r0
;;;266          if (pItem->Flags & MENU_IF_SEPARATOR) {
000172  f8b80004          LDRH     r0,[r8,#4]
000176  f0100f02          TST      r0,#2
00017a  d000              BEQ      |L1.382|
;;;267            ItemHeight = 3;
00017c  2503              MOVS     r5,#3
                  |L1.382|
;;;268          }
;;;269        }
00017e  bf00              NOP      
                  |L1.384|
;;;270        ItemHeight += pObj->Props.aBorder[MENU_BI_TOP] + pObj->Props.aBorder[MENU_BI_BOTTOM];
000180  f8941052          LDRB     r1,[r4,#0x52]
000184  f8940053          LDRB     r0,[r4,#0x53]
000188  4408              ADD      r0,r0,r1
00018a  4405              ADD      r5,r5,r0
                  |L1.396|
;;;271      }
;;;272      return ItemHeight;
00018c  4628              MOV      r0,r5
;;;273    }
00018e  e8bd81f0          POP      {r4-r8,pc}
;;;274    
                          ENDP

                  MENU__GetNumItems PROC
;;;1026   */
;;;1027   unsigned MENU__GetNumItems(MENU_Obj* pObj) {
000192  b510              PUSH     {r4,lr}
000194  4604              MOV      r4,r0
;;;1028     return GUI_ARRAY_GetNumItems(&pObj->ItemArray);
000196  f1040058          ADD      r0,r4,#0x58
00019a  f7fffffe          BL       GUI_ARRAY_GetNumItems
;;;1029   }
00019e  bd10              POP      {r4,pc}
;;;1030   
                          ENDP

                  _CalcMenuSizeX PROC
;;;278    */
;;;279    static int _CalcMenuSizeX(MENU_Handle hObj, MENU_Obj* pObj) {
0001a0  e92d47f0          PUSH     {r4-r10,lr}
0001a4  4681              MOV      r9,r0
0001a6  460f              MOV      r7,r1
;;;280      unsigned i, NumItems = MENU__GetNumItems(pObj);
0001a8  4638              MOV      r0,r7
0001aa  f7fffffe          BL       MENU__GetNumItems
0001ae  4680              MOV      r8,r0
;;;281      int xSize = 0;
0001b0  2500              MOVS     r5,#0
;;;282      if (pObj->Flags & MENU_SF_VERTICAL) {
0001b2  f8b7005e          LDRH     r0,[r7,#0x5e]
0001b6  f0100f01          TST      r0,#1
0001ba  d00e              BEQ      |L1.474|
;;;283        int ItemWidth;
;;;284        for (i = 0; i < NumItems; i++) {
0001bc  2400              MOVS     r4,#0
0001be  e009              B        |L1.468|
                  |L1.448|
;;;285          ItemWidth = _GetItemWidth(hObj, pObj, i);
0001c0  4622              MOV      r2,r4
0001c2  4639              MOV      r1,r7
0001c4  4648              MOV      r0,r9
0001c6  f7fffffe          BL       _GetItemWidth
0001ca  4606              MOV      r6,r0
;;;286          if (ItemWidth > xSize) {
0001cc  42ae              CMP      r6,r5
0001ce  dd00              BLE      |L1.466|
;;;287            xSize = ItemWidth;
0001d0  4635              MOV      r5,r6
                  |L1.466|
0001d2  1c64              ADDS     r4,r4,#1              ;284
                  |L1.468|
0001d4  4544              CMP      r4,r8                 ;284
0001d6  d3f3              BCC      |L1.448|
;;;288          }
;;;289        }
;;;290      } else {
0001d8  e00a              B        |L1.496|
                  |L1.474|
;;;291        for (i = 0; i < NumItems; i++) {
0001da  2400              MOVS     r4,#0
0001dc  e006              B        |L1.492|
                  |L1.478|
;;;292          xSize += _GetItemWidth(hObj, pObj, i);
0001de  4622              MOV      r2,r4
0001e0  4639              MOV      r1,r7
0001e2  4648              MOV      r0,r9
0001e4  f7fffffe          BL       _GetItemWidth
0001e8  4405              ADD      r5,r5,r0
0001ea  1c64              ADDS     r4,r4,#1              ;291
                  |L1.492|
0001ec  4544              CMP      r4,r8                 ;291
0001ee  d3f6              BCC      |L1.478|
                  |L1.496|
;;;293        }
;;;294      }
;;;295      xSize += (_GetEffectSize(hObj, pObj) << 1);
0001f0  4639              MOV      r1,r7
0001f2  4648              MOV      r0,r9
0001f4  f7fffffe          BL       _GetEffectSize
0001f8  eb050540          ADD      r5,r5,r0,LSL #1
;;;296      return xSize;
0001fc  4628              MOV      r0,r5
;;;297    }
0001fe  e8bd87f0          POP      {r4-r10,pc}
;;;298    
                          ENDP

                  _CalcMenuSizeY PROC
;;;302    */
;;;303    static int _CalcMenuSizeY(MENU_Handle hObj, MENU_Obj* pObj) {
000202  e92d47f0          PUSH     {r4-r10,lr}
000206  4681              MOV      r9,r0
000208  460f              MOV      r7,r1
;;;304      unsigned i, NumItems = MENU__GetNumItems(pObj);
00020a  4638              MOV      r0,r7
00020c  f7fffffe          BL       MENU__GetNumItems
000210  4680              MOV      r8,r0
;;;305      int ySize = 0;
000212  2500              MOVS     r5,#0
;;;306      if (pObj->Flags & MENU_SF_VERTICAL) {
000214  f8b7005e          LDRH     r0,[r7,#0x5e]
000218  f0100f01          TST      r0,#1
00021c  d00b              BEQ      |L1.566|
;;;307        for (i = 0; i < NumItems; i++) {
00021e  2400              MOVS     r4,#0
000220  e006              B        |L1.560|
                  |L1.546|
;;;308          ySize += _GetItemHeight(hObj, pObj, i);
000222  4622              MOV      r2,r4
000224  4639              MOV      r1,r7
000226  4648              MOV      r0,r9
000228  f7fffffe          BL       _GetItemHeight
00022c  4405              ADD      r5,r5,r0
00022e  1c64              ADDS     r4,r4,#1              ;307
                  |L1.560|
000230  4544              CMP      r4,r8                 ;307
000232  d3f6              BCC      |L1.546|
000234  e00e              B        |L1.596|
                  |L1.566|
;;;309        }
;;;310      } else {
;;;311        int ItemHeight;
;;;312        for (i = 0; i < NumItems; i++) {
000236  2400              MOVS     r4,#0
000238  e009              B        |L1.590|
                  |L1.570|
;;;313          ItemHeight = _GetItemHeight(hObj, pObj, i);
00023a  4622              MOV      r2,r4
00023c  4639              MOV      r1,r7
00023e  4648              MOV      r0,r9
000240  f7fffffe          BL       _GetItemHeight
000244  4606              MOV      r6,r0
;;;314          if (ItemHeight > ySize) {
000246  42ae              CMP      r6,r5
000248  dd00              BLE      |L1.588|
;;;315            ySize = ItemHeight;
00024a  4635              MOV      r5,r6
                  |L1.588|
00024c  1c64              ADDS     r4,r4,#1              ;312
                  |L1.590|
00024e  4544              CMP      r4,r8                 ;312
000250  d3f3              BCC      |L1.570|
;;;316          }
;;;317        }
;;;318      }
000252  bf00              NOP      
                  |L1.596|
;;;319      ySize += (_GetEffectSize(hObj, pObj) << 1);
000254  4639              MOV      r1,r7
000256  4648              MOV      r0,r9
000258  f7fffffe          BL       _GetEffectSize
00025c  eb050540          ADD      r5,r5,r0,LSL #1
;;;320      return ySize;
000260  4628              MOV      r0,r5
;;;321    }
000262  e8bd87f0          POP      {r4-r10,pc}
;;;322    
                          ENDP

                  _CalcWindowSizeX PROC
;;;326    */
;;;327    static int _CalcWindowSizeX(MENU_Handle hObj, MENU_Obj* pObj) {
000266  b570              PUSH     {r4-r6,lr}
000268  4606              MOV      r6,r0
00026a  460c              MOV      r4,r1
;;;328      int xSize = pObj->Width;
00026c  6e65              LDR      r5,[r4,#0x64]
;;;329      if (xSize == 0) {
00026e  b925              CBNZ     r5,|L1.634|
;;;330        xSize = _CalcMenuSizeX(hObj, pObj);
000270  4621              MOV      r1,r4
000272  4630              MOV      r0,r6
000274  f7fffffe          BL       _CalcMenuSizeX
000278  4605              MOV      r5,r0
                  |L1.634|
;;;331      }
;;;332      return xSize;
00027a  4628              MOV      r0,r5
;;;333    }
00027c  bd70              POP      {r4-r6,pc}
;;;334    
                          ENDP

                  _CalcWindowSizeY PROC
;;;338    */
;;;339    static int _CalcWindowSizeY(MENU_Handle hObj, MENU_Obj* pObj) {
00027e  b570              PUSH     {r4-r6,lr}
000280  4606              MOV      r6,r0
000282  460c              MOV      r4,r1
;;;340      int ySize = pObj->Height;
000284  6ea5              LDR      r5,[r4,#0x68]
;;;341      if (ySize == 0) {
000286  b925              CBNZ     r5,|L1.658|
;;;342        ySize = _CalcMenuSizeY(hObj, pObj);
000288  4621              MOV      r1,r4
00028a  4630              MOV      r0,r6
00028c  f7fffffe          BL       _CalcMenuSizeY
000290  4605              MOV      r5,r0
                  |L1.658|
;;;343      }
;;;344      return ySize;
000292  4628              MOV      r0,r5
;;;345    }
000294  bd70              POP      {r4-r6,pc}
;;;346    
                          ENDP

                  _GetItemFromPos PROC
;;;357    */
;;;358    static int _GetItemFromPos(MENU_Handle hObj, MENU_Obj* pObj, int x, int y) {
000296  e92d4fff          PUSH     {r0-r11,lr}
00029a  b083              SUB      sp,sp,#0xc
00029c  460c              MOV      r4,r1
00029e  4617              MOV      r7,r2
0002a0  4698              MOV      r8,r3
;;;359      int xSize, ySize, EffectSize, r = -1;
0002a2  f04f30ff          MOV      r0,#0xffffffff
0002a6  9002              STR      r0,[sp,#8]
;;;360      ySize = _CalcMenuSizeY(hObj, pObj);
0002a8  4621              MOV      r1,r4
0002aa  9803              LDR      r0,[sp,#0xc]
0002ac  f7fffffe          BL       _CalcMenuSizeY
0002b0  4682              MOV      r10,r0
;;;361      if ((pObj->Height) && (pObj->Height < ySize)) {
0002b2  6ea0              LDR      r0,[r4,#0x68]
0002b4  b120              CBZ      r0,|L1.704|
0002b6  6ea0              LDR      r0,[r4,#0x68]
0002b8  4550              CMP      r0,r10
0002ba  da01              BGE      |L1.704|
;;;362        ySize = pObj->Height;
0002bc  f8d4a068          LDR      r10,[r4,#0x68]
                  |L1.704|
;;;363      }
;;;364      xSize = _CalcMenuSizeX(hObj, pObj);
0002c0  4621              MOV      r1,r4
0002c2  9803              LDR      r0,[sp,#0xc]
0002c4  f7fffffe          BL       _CalcMenuSizeX
0002c8  4681              MOV      r9,r0
;;;365      if ((pObj->Width) && (pObj->Width < xSize)) {
0002ca  6e60              LDR      r0,[r4,#0x64]
0002cc  b120              CBZ      r0,|L1.728|
0002ce  6e60              LDR      r0,[r4,#0x64]
0002d0  4548              CMP      r0,r9
0002d2  da01              BGE      |L1.728|
;;;366        xSize = pObj->Width;
0002d4  f8d49064          LDR      r9,[r4,#0x64]
                  |L1.728|
;;;367      }
;;;368      EffectSize = _GetEffectSize(hObj, pObj);
0002d8  4621              MOV      r1,r4
0002da  9803              LDR      r0,[sp,#0xc]
0002dc  f7fffffe          BL       _GetEffectSize
0002e0  4606              MOV      r6,r0
;;;369      x     -= EffectSize;
0002e2  1bbf              SUBS     r7,r7,r6
;;;370      y     -= EffectSize;
0002e4  eba80806          SUB      r8,r8,r6
;;;371      xSize -= (EffectSize << 1);
0002e8  eba90946          SUB      r9,r9,r6,LSL #1
;;;372      ySize -= (EffectSize << 1);
0002ec  ebaa0a46          SUB      r10,r10,r6,LSL #1
;;;373      if ((x >= 0) && (y >= 0) && (x < xSize) && (y < ySize)) {
0002f0  2f00              CMP      r7,#0
0002f2  db38              BLT      |L1.870|
0002f4  f1b80f00          CMP      r8,#0
0002f8  db35              BLT      |L1.870|
0002fa  454f              CMP      r7,r9
0002fc  da33              BGE      |L1.870|
0002fe  45d0              CMP      r8,r10
000300  da31              BGE      |L1.870|
;;;374        unsigned i, NumItems = MENU__GetNumItems(pObj);
000302  4620              MOV      r0,r4
000304  f7fffffe          BL       MENU__GetNumItems
000308  9001              STR      r0,[sp,#4]
;;;375        if (pObj->Flags & MENU_SF_VERTICAL) {
00030a  f8b4005e          LDRH     r0,[r4,#0x5e]
00030e  f0100f01          TST      r0,#1
000312  d013              BEQ      |L1.828|
;;;376          int yPos = 0;
000314  f04f0b00          MOV      r11,#0
;;;377          for (i = 0; i < NumItems; i++) {
000318  2500              MOVS     r5,#0
00031a  e00a              B        |L1.818|
                  |L1.796|
;;;378            yPos += _GetItemHeight(hObj, pObj, i);
00031c  462a              MOV      r2,r5
00031e  4621              MOV      r1,r4
000320  9803              LDR      r0,[sp,#0xc]
000322  f7fffffe          BL       _GetItemHeight
000326  4483              ADD      r11,r11,r0
;;;379            if (y < yPos) {
000328  45d8              CMP      r8,r11
00032a  da01              BGE      |L1.816|
;;;380              r = i;
00032c  9502              STR      r5,[sp,#8]
;;;381              break;
00032e  e003              B        |L1.824|
                  |L1.816|
000330  1c6d              ADDS     r5,r5,#1              ;377
                  |L1.818|
000332  9801              LDR      r0,[sp,#4]            ;377
000334  4285              CMP      r5,r0                 ;377
000336  d3f1              BCC      |L1.796|
                  |L1.824|
000338  bf00              NOP      
;;;382            }
;;;383          }
;;;384        } else {
00033a  e013              B        |L1.868|
                  |L1.828|
;;;385          int xPos = 0;
00033c  f04f0b00          MOV      r11,#0
;;;386          for (i = 0; i < NumItems; i++) {
000340  2500              MOVS     r5,#0
000342  e00a              B        |L1.858|
                  |L1.836|
;;;387            xPos += _GetItemWidth(hObj, pObj, i);
000344  462a              MOV      r2,r5
000346  4621              MOV      r1,r4
000348  9803              LDR      r0,[sp,#0xc]
00034a  f7fffffe          BL       _GetItemWidth
00034e  4483              ADD      r11,r11,r0
;;;388            if (x < xPos) {
000350  455f              CMP      r7,r11
000352  da01              BGE      |L1.856|
;;;389              r = i;
000354  9502              STR      r5,[sp,#8]
;;;390              break;
000356  e003              B        |L1.864|
                  |L1.856|
000358  1c6d              ADDS     r5,r5,#1              ;386
                  |L1.858|
00035a  9801              LDR      r0,[sp,#4]            ;386
00035c  4285              CMP      r5,r0                 ;386
00035e  d3f1              BCC      |L1.836|
                  |L1.864|
000360  bf00              NOP      
;;;391            }
;;;392          }
;;;393        }
000362  bf00              NOP      
                  |L1.868|
;;;394      }
000364  bf00              NOP      
                  |L1.870|
;;;395      return r;
000366  9802              LDR      r0,[sp,#8]
;;;396    }
000368  b007              ADD      sp,sp,#0x1c
00036a  e8bd8ff0          POP      {r4-r11,pc}
;;;397    
                          ENDP

                  _GetItemPos PROC
;;;401    */
;;;402    static void _GetItemPos(MENU_Handle hObj, MENU_Obj* pObj, unsigned Index, int* px, int* py) {
00036e  e92d5ff0          PUSH     {r4-r12,lr}
000372  4683              MOV      r11,r0
000374  4688              MOV      r8,r1
000376  4616              MOV      r6,r2
000378  461f              MOV      r7,r3
00037a  f8dd9028          LDR      r9,[sp,#0x28]
;;;403      int i, EffectSize;
;;;404      EffectSize = _GetEffectSize(hObj, pObj);
00037e  4641              MOV      r1,r8
000380  4658              MOV      r0,r11
000382  f7fffffe          BL       _GetEffectSize
000386  4605              MOV      r5,r0
;;;405      if (pObj->Flags & MENU_SF_VERTICAL) {
000388  f8b8005e          LDRH     r0,[r8,#0x5e]
00038c  f0100f01          TST      r0,#1
000390  d012              BEQ      |L1.952|
;;;406        int yPos = 0;
000392  f04f0a00          MOV      r10,#0
;;;407        for (i = 0; i < (int)Index; i++) {
000396  2400              MOVS     r4,#0
000398  e006              B        |L1.936|
                  |L1.922|
;;;408          yPos += _GetItemHeight(hObj, pObj, i);
00039a  4622              MOV      r2,r4
00039c  4641              MOV      r1,r8
00039e  4658              MOV      r0,r11
0003a0  f7fffffe          BL       _GetItemHeight
0003a4  4482              ADD      r10,r10,r0
0003a6  1c64              ADDS     r4,r4,#1              ;407
                  |L1.936|
0003a8  42b4              CMP      r4,r6                 ;407
0003aa  dbf6              BLT      |L1.922|
;;;409        }
;;;410        *px = EffectSize;
0003ac  603d              STR      r5,[r7,#0]
;;;411        *py = EffectSize + yPos;
0003ae  eb05000a          ADD      r0,r5,r10
0003b2  f8c90000          STR      r0,[r9,#0]
;;;412      } else {
0003b6  e012              B        |L1.990|
                  |L1.952|
;;;413        int xPos = 0;
0003b8  f04f0a00          MOV      r10,#0
;;;414        for (i = 0; i < (int)Index; i++) {
0003bc  2400              MOVS     r4,#0
0003be  e006              B        |L1.974|
                  |L1.960|
;;;415          xPos += _GetItemWidth(hObj, pObj, i);
0003c0  4622              MOV      r2,r4
0003c2  4641              MOV      r1,r8
0003c4  4658              MOV      r0,r11
0003c6  f7fffffe          BL       _GetItemWidth
0003ca  4482              ADD      r10,r10,r0
0003cc  1c64              ADDS     r4,r4,#1              ;414
                  |L1.974|
0003ce  42b4              CMP      r4,r6                 ;414
0003d0  dbf6              BLT      |L1.960|
;;;416        }
;;;417        *px = EffectSize + xPos;
0003d2  eb05000a          ADD      r0,r5,r10
0003d6  6038              STR      r0,[r7,#0]
;;;418        *py = EffectSize;
0003d8  f8c95000          STR      r5,[r9,#0]
;;;419      }
0003dc  bf00              NOP      
                  |L1.990|
;;;420    }
0003de  e8bd9ff0          POP      {r4-r12,pc}
;;;421    
                          ENDP

                  _SetCapture PROC
;;;425    */
;;;426    static void _SetCapture(MENU_Handle hObj, const MENU_Obj* pObj) {
0003e2  b570              PUSH     {r4-r6,lr}
0003e4  4605              MOV      r5,r0
0003e6  460c              MOV      r4,r1
;;;427      if (pObj->IsSubmenuActive == 0) {
0003e8  f8940060          LDRB     r0,[r4,#0x60]
0003ec  b938              CBNZ     r0,|L1.1022|
;;;428        if (WM_HasCaptured(hObj) == 0) {
0003ee  4628              MOV      r0,r5
0003f0  f7fffffe          BL       WM_HasCaptured
0003f4  b918              CBNZ     r0,|L1.1022|
;;;429          WM_SetCapture(hObj, 0);
0003f6  2100              MOVS     r1,#0
0003f8  4628              MOV      r0,r5
0003fa  f7fffffe          BL       WM_SetCapture
                  |L1.1022|
;;;430        }
;;;431      }
;;;432    }
0003fe  bd70              POP      {r4-r6,pc}
;;;433    
                          ENDP

                  _ReleaseCapture PROC
;;;437    */
;;;438    static void _ReleaseCapture(MENU_Handle hObj, const MENU_Obj* pObj) {
000400  b570              PUSH     {r4-r6,lr}
000402  4605              MOV      r5,r0
000404  460c              MOV      r4,r1
;;;439      if (WM_HasCaptured(hObj)) {
000406  4628              MOV      r0,r5
000408  f7fffffe          BL       WM_HasCaptured
00040c  b158              CBZ      r0,|L1.1062|
;;;440        if (_IsTopLevelMenu(hObj, pObj) && !(pObj->Flags & MENU_SF_POPUP)) {
00040e  4621              MOV      r1,r4
000410  4628              MOV      r0,r5
000412  f7fffffe          BL       _IsTopLevelMenu
000416  b130              CBZ      r0,|L1.1062|
000418  f8b4005e          LDRH     r0,[r4,#0x5e]
00041c  f0100f80          TST      r0,#0x80
000420  d101              BNE      |L1.1062|
;;;441          WM_ReleaseCapture();
000422  f7fffffe          BL       WM_ReleaseCapture
                  |L1.1062|
;;;442        }
;;;443      }
;;;444    }
000426  bd70              POP      {r4-r6,pc}
;;;445    
                          ENDP

                  MENU__InvalidateItem PROC
;;;1034   */
;;;1035   void MENU__InvalidateItem(MENU_Handle hObj, const MENU_Obj* pObj, unsigned Index) {
000428  b570              PUSH     {r4-r6,lr}
00042a  4606              MOV      r6,r0
00042c  460c              MOV      r4,r1
00042e  4615              MOV      r5,r2
;;;1036     GUI_USE_PARA(pObj);
000430  bf00              NOP      
;;;1037     GUI_USE_PARA(Index);
000432  bf00              NOP      
;;;1038     WM_InvalidateWindow(hObj);  /* Can be optimized, no need to invalidate all items */
000434  4630              MOV      r0,r6
000436  f7fffffe          BL       WM_InvalidateWindow
;;;1039   }
00043a  bd70              POP      {r4-r6,pc}
;;;1040   
                          ENDP

                  _CloseSubmenu PROC
;;;449    */
;;;450    static void _CloseSubmenu(MENU_Handle hObj, MENU_Obj* pObj) {
00043c  b570              PUSH     {r4-r6,lr}
00043e  4606              MOV      r6,r0
000440  460c              MOV      r4,r1
;;;451      if (pObj->Flags & MENU_SF_ACTIVE) {
000442  f8b4005e          LDRH     r0,[r4,#0x5e]
000446  f0100f40          TST      r0,#0x40
00044a  d020              BEQ      |L1.1166|
;;;452        if (pObj->IsSubmenuActive) {
00044c  f8940060          LDRB     r0,[r4,#0x60]
000450  b1e8              CBZ      r0,|L1.1166|
;;;453          MENU_ITEM* pItem = (MENU_ITEM*)GUI_ARRAY_GetpItem(&pObj->ItemArray, pObj->Sel);
000452  f1040058          ADD      r0,r4,#0x58
000456  6ee1              LDR      r1,[r4,#0x6c]
000458  f7fffffe          BL       GUI_ARRAY_GetpItem
00045c  4605              MOV      r5,r0
;;;454          /* Inform submenu about its deactivation and detach it */
;;;455          MENU__SendMenuMessage(hObj, pItem->hSubmenu, MENU_ON_CLOSE, 0);
00045e  f9b51000          LDRSH    r1,[r5,#0]
000462  2300              MOVS     r3,#0
000464  2204              MOVS     r2,#4
000466  4630              MOV      r0,r6
000468  f7fffffe          BL       MENU__SendMenuMessage
;;;456          WM_DetachWindow(pItem->hSubmenu);
00046c  f9b50000          LDRSH    r0,[r5,#0]
000470  f7fffffe          BL       WM_DetachWindow
;;;457          pObj->IsSubmenuActive = 0;
000474  2000              MOVS     r0,#0
000476  f8840060          STRB     r0,[r4,#0x60]
;;;458          /*
;;;459           * Keep capture in menu widget. The capture may only released
;;;460           * by clicking outside the menu or when mouse moved out.
;;;461           * And it may only released from a top level menu.
;;;462           */
;;;463          _SetCapture(hObj, pObj);
00047a  4621              MOV      r1,r4
00047c  4630              MOV      r0,r6
00047e  f7fffffe          BL       _SetCapture
;;;464          /* Invalidate menu item. This is needed because the appearance may have changed */
;;;465          MENU__InvalidateItem(hObj, pObj, pObj->Sel);
000482  4621              MOV      r1,r4
000484  4630              MOV      r0,r6
000486  6ee2              LDR      r2,[r4,#0x6c]
000488  f7fffffe          BL       MENU__InvalidateItem
;;;466        }
00048c  bf00              NOP      
                  |L1.1166|
;;;467      }
;;;468    }
00048e  bd70              POP      {r4-r6,pc}
;;;469    
                          ENDP

                  MENU_SetOwner PROC
;;;1162   */
;;;1163   void MENU_SetOwner(MENU_Handle hObj, WM_HWIN hOwner) {
000490  b570              PUSH     {r4-r6,lr}
000492  4604              MOV      r4,r0
000494  460d              MOV      r5,r1
;;;1164     if (hObj) {
000496  b15c              CBZ      r4,|L1.1200|
;;;1165       MENU_Obj* pObj;
;;;1166       WM_LOCK();
000498  f7fffffe          BL       GUI_Lock
;;;1167       pObj = MENU_H2P(hObj);
00049c  4620              MOV      r0,r4
00049e  f7fffffe          BL       GUI_ALLOC_h2p
0004a2  4606              MOV      r6,r0
;;;1168       if (pObj) {
0004a4  b10e              CBZ      r6,|L1.1194|
;;;1169         pObj->hOwner = hOwner;
0004a6  f8a6505c          STRH     r5,[r6,#0x5c]
                  |L1.1194|
;;;1170       }
;;;1171       WM_UNLOCK();
0004aa  f7fffffe          BL       GUI_Unlock
;;;1172     }
0004ae  bf00              NOP      
                  |L1.1200|
;;;1173   }
0004b0  bd70              POP      {r4-r6,pc}
;;;1174   
                          ENDP

                  _OpenSubmenu PROC
;;;473    */
;;;474    static void _OpenSubmenu(MENU_Handle hObj, MENU_Obj* pObj, unsigned Index) {
0004b2  e92d4ffe          PUSH     {r1-r11,lr}
0004b6  4606              MOV      r6,r0
0004b8  460c              MOV      r4,r1
0004ba  4617              MOV      r7,r2
;;;475      if (pObj->Flags & MENU_SF_ACTIVE) {
0004bc  f8b4005e          LDRH     r0,[r4,#0x5e]
0004c0  f0100f40          TST      r0,#0x40
0004c4  d07e              BEQ      |L1.1476|
;;;476        MENU_ITEM* pItem;
;;;477        char PrevActiveSubmenu;
;;;478        PrevActiveSubmenu = pObj->IsSubmenuActive;
0004c6  f8949060          LDRB     r9,[r4,#0x60]
;;;479        /* Close previous submenu (if needed) */
;;;480        _CloseSubmenu(hObj, pObj);
0004ca  4621              MOV      r1,r4
0004cc  4630              MOV      r0,r6
0004ce  f7fffffe          BL       _CloseSubmenu
;;;481        pItem = (MENU_ITEM*)GUI_ARRAY_GetpItem(&pObj->ItemArray, Index);
0004d2  4639              MOV      r1,r7
0004d4  f1040058          ADD      r0,r4,#0x58
0004d8  f7fffffe          BL       GUI_ARRAY_GetpItem
0004dc  4605              MOV      r5,r0
;;;482        if (pItem->hSubmenu) {
0004de  8828              LDRH     r0,[r5,#0]
0004e0  b3f0              CBZ      r0,|L1.1376|
;;;483          if ((pItem->Flags & MENU_IF_DISABLED) == 0) {
0004e2  88a8              LDRH     r0,[r5,#4]
0004e4  f0100f01          TST      r0,#1
0004e8  d17b              BNE      |L1.1506|
;;;484            int x, y, EffectSize;
;;;485            /* Calculate position of submenu */
;;;486            EffectSize = _GetEffectSize(hObj, pObj);
0004ea  4621              MOV      r1,r4
0004ec  4630              MOV      r0,r6
0004ee  f7fffffe          BL       _GetEffectSize
0004f2  4680              MOV      r8,r0
;;;487            _GetItemPos(hObj, pObj, Index, &x, &y);
0004f4  ab01              ADD      r3,sp,#4
0004f6  9300              STR      r3,[sp,#0]
0004f8  ab02              ADD      r3,sp,#8
0004fa  463a              MOV      r2,r7
0004fc  4621              MOV      r1,r4
0004fe  4630              MOV      r0,r6
000500  f7fffffe          BL       _GetItemPos
;;;488            if (pObj->Flags & MENU_SF_VERTICAL) {
000504  f8b4005e          LDRH     r0,[r4,#0x5e]
000508  f0100f01          TST      r0,#1
00050c  d012              BEQ      |L1.1332|
;;;489              x += _CalcMenuSizeX(hObj, pObj) - (_GetEffectSize(hObj, pObj) << 1);
00050e  4621              MOV      r1,r4
000510  4630              MOV      r0,r6
000512  f7fffffe          BL       _CalcMenuSizeX
000516  4682              MOV      r10,r0
000518  4621              MOV      r1,r4
00051a  4630              MOV      r0,r6
00051c  f7fffffe          BL       _GetEffectSize
000520  ebaa0040          SUB      r0,r10,r0,LSL #1
000524  9902              LDR      r1,[sp,#8]
000526  4408              ADD      r0,r0,r1
000528  9002              STR      r0,[sp,#8]
;;;490              y -= EffectSize;
00052a  9801              LDR      r0,[sp,#4]
00052c  eba00008          SUB      r0,r0,r8
000530  9001              STR      r0,[sp,#4]
000532  e011              B        |L1.1368|
                  |L1.1332|
;;;491            } else {
;;;492              y += _CalcMenuSizeY(hObj, pObj) - (_GetEffectSize(hObj, pObj) << 1);
000534  4621              MOV      r1,r4
000536  4630              MOV      r0,r6
000538  f7fffffe          BL       _CalcMenuSizeY
00053c  4682              MOV      r10,r0
00053e  4621              MOV      r1,r4
000540  4630              MOV      r0,r6
000542  f7fffffe          BL       _GetEffectSize
000546  ebaa0040          SUB      r0,r10,r0,LSL #1
00054a  9901              LDR      r1,[sp,#4]
00054c  4408              ADD      r0,r0,r1
00054e  9001              STR      r0,[sp,#4]
;;;493              x -= EffectSize;
000550  9802              LDR      r0,[sp,#8]
000552  eba00008          SUB      r0,r0,r8
000556  9002              STR      r0,[sp,#8]
                  |L1.1368|
;;;494            }
;;;495            x += WM_GetWindowOrgX(hObj);
000558  4630              MOV      r0,r6
00055a  f7fffffe          BL       WM_GetWindowOrgX
00055e  e000              B        |L1.1378|
                  |L1.1376|
000560  e03f              B        |L1.1506|
                  |L1.1378|
000562  9902              LDR      r1,[sp,#8]
000564  4408              ADD      r0,r0,r1
000566  9002              STR      r0,[sp,#8]
;;;496            y += WM_GetWindowOrgY(hObj);
000568  4630              MOV      r0,r6
00056a  f7fffffe          BL       WM_GetWindowOrgY
00056e  9901              LDR      r1,[sp,#4]
000570  4408              ADD      r0,r0,r1
000572  9001              STR      r0,[sp,#4]
;;;497            /*
;;;498             * Notify owner window when for the first time open a menu (when no
;;;499             * other submenu was open), so it can initialize the menu items.
;;;500             */
;;;501            if (PrevActiveSubmenu == 0) {
000574  f1b90f00          CMP      r9,#0
000578  d10b              BNE      |L1.1426|
;;;502              if (_IsTopLevelMenu(hObj, pObj)) {
00057a  4621              MOV      r1,r4
00057c  4630              MOV      r0,r6
00057e  f7fffffe          BL       _IsTopLevelMenu
000582  b130              CBZ      r0,|L1.1426|
;;;503                MENU__SendMenuMessage(hObj, pObj->hOwner, MENU_ON_INITMENU, 0);
000584  f9b4105c          LDRSH    r1,[r4,#0x5c]
000588  2300              MOVS     r3,#0
00058a  2201              MOVS     r2,#1
00058c  4630              MOV      r0,r6
00058e  f7fffffe          BL       MENU__SendMenuMessage
                  |L1.1426|
;;;504              }
;;;505            }
;;;506            /* Notify owner window when a submenu opens, so it can initialize the menu items. */
;;;507            MENU__SendMenuMessage(hObj, pObj->hOwner, MENU_ON_INITSUBMENU, pItem->Id);
000592  886b              LDRH     r3,[r5,#2]
000594  f9b4105c          LDRSH    r1,[r4,#0x5c]
000598  2202              MOVS     r2,#2
00059a  4630              MOV      r0,r6
00059c  f7fffffe          BL       MENU__SendMenuMessage
;;;508            /* Set active menu as owner of submenu. */
;;;509            MENU_SetOwner(pItem->hSubmenu, hObj);
0005a0  f9b50000          LDRSH    r0,[r5,#0]
0005a4  4631              MOV      r1,r6
0005a6  f7fffffe          BL       MENU_SetOwner
;;;510            /* Attach submenu and inform it about its activation. */
;;;511            WM_AttachWindowAt(pItem->hSubmenu, WM_HBKWIN, x, y);
0005aa  f7fffffe          BL       WM_GetDesktopWindow
0005ae  4682              MOV      r10,r0
0005b0  f9b50000          LDRSH    r0,[r5,#0]
0005b4  4651              MOV      r1,r10
0005b6  e9dd3201          LDRD     r3,r2,[sp,#4]
0005ba  f7fffffe          BL       WM_AttachWindowAt
;;;512            MENU__SendMenuMessage(hObj, pItem->hSubmenu, MENU_ON_OPEN, 0);
0005be  f9b51000          LDRSH    r1,[r5,#0]
0005c2  e000              B        |L1.1478|
                  |L1.1476|
0005c4  e00e              B        |L1.1508|
                  |L1.1478|
0005c6  2300              MOVS     r3,#0
0005c8  2203              MOVS     r2,#3
0005ca  4630              MOV      r0,r6
0005cc  f7fffffe          BL       MENU__SendMenuMessage
;;;513            pObj->IsSubmenuActive = 1;
0005d0  2001              MOVS     r0,#1
0005d2  f8840060          STRB     r0,[r4,#0x60]
;;;514            /* Invalidate menu item. This is needed because the appearance may have changed. */
;;;515            MENU__InvalidateItem(hObj, pObj, Index);
0005d6  463a              MOV      r2,r7
0005d8  4621              MOV      r1,r4
0005da  4630              MOV      r0,r6
0005dc  f7fffffe          BL       MENU__InvalidateItem
;;;516          }
0005e0  bf00              NOP      
                  |L1.1506|
;;;517        }
;;;518      }
0005e2  bf00              NOP      
                  |L1.1508|
;;;519    }
0005e4  e8bd8ffe          POP      {r1-r11,pc}
;;;520    
                          ENDP

                  _ClosePopup PROC
;;;524    */
;;;525    static void _ClosePopup(MENU_Handle hObj, MENU_Obj* pObj) {
0005e8  b570              PUSH     {r4-r6,lr}
0005ea  4605              MOV      r5,r0
0005ec  460c              MOV      r4,r1
;;;526      if (pObj->Flags & MENU_SF_POPUP) {
0005ee  f8b4005e          LDRH     r0,[r4,#0x5e]
0005f2  f0100f80          TST      r0,#0x80
0005f6  d00a              BEQ      |L1.1550|
;;;527        pObj->Flags &= ~(MENU_SF_POPUP);
0005f8  f8b4005e          LDRH     r0,[r4,#0x5e]
0005fc  f0200080          BIC      r0,r0,#0x80
000600  f8a4005e          STRH     r0,[r4,#0x5e]
;;;528        WM_DetachWindow(hObj);
000604  4628              MOV      r0,r5
000606  f7fffffe          BL       WM_DetachWindow
;;;529        WM_ReleaseCapture();
00060a  f7fffffe          BL       WM_ReleaseCapture
                  |L1.1550|
;;;530      }
;;;531    }
00060e  bd70              POP      {r4-r6,pc}
;;;532    
                          ENDP

                  _SetSelection PROC
;;;536    */
;;;537    static void _SetSelection(MENU_Handle hObj, MENU_Obj* pObj, int Index) {
000610  b570              PUSH     {r4-r6,lr}
000612  4606              MOV      r6,r0
000614  460c              MOV      r4,r1
000616  4615              MOV      r5,r2
;;;538      if (Index != pObj->Sel) {
000618  6ee0              LDR      r0,[r4,#0x6c]
00061a  42a8              CMP      r0,r5
00061c  d00a              BEQ      |L1.1588|
;;;539        MENU__InvalidateItem(hObj, pObj, pObj->Sel); /* Invalidate previous selection */
00061e  4621              MOV      r1,r4
000620  4630              MOV      r0,r6
000622  6ee2              LDR      r2,[r4,#0x6c]
000624  f7fffffe          BL       MENU__InvalidateItem
;;;540        MENU__InvalidateItem(hObj, pObj, Index);     /* Invalidate new selection */
000628  462a              MOV      r2,r5
00062a  4621              MOV      r1,r4
00062c  4630              MOV      r0,r6
00062e  f7fffffe          BL       MENU__InvalidateItem
;;;541        pObj->Sel = Index;
000632  66e5              STR      r5,[r4,#0x6c]
                  |L1.1588|
;;;542      }
;;;543    }
000634  bd70              POP      {r4-r6,pc}
;;;544    
                          ENDP

                  _SelectItem PROC
;;;548    */
;;;549    static void _SelectItem(MENU_Handle hObj, MENU_Obj* pObj, unsigned Index) {
000636  b570              PUSH     {r4-r6,lr}
000638  4606              MOV      r6,r0
00063a  460c              MOV      r4,r1
00063c  4615              MOV      r5,r2
;;;550      if (pObj->Sel != (int)Index) {
00063e  6ee0              LDR      r0,[r4,#0x6c]
000640  42a8              CMP      r0,r5
000642  d00d              BEQ      |L1.1632|
;;;551        _SetCapture(hObj, pObj);
000644  4621              MOV      r1,r4
000646  4630              MOV      r0,r6
000648  f7fffffe          BL       _SetCapture
;;;552        _OpenSubmenu(hObj, pObj, Index);
00064c  462a              MOV      r2,r5
00064e  4621              MOV      r1,r4
000650  4630              MOV      r0,r6
000652  f7fffffe          BL       _OpenSubmenu
;;;553        _SetSelection(hObj, pObj, Index);
000656  462a              MOV      r2,r5
000658  4621              MOV      r1,r4
00065a  4630              MOV      r0,r6
00065c  f7fffffe          BL       _SetSelection
                  |L1.1632|
;;;554      }
;;;555    }
000660  bd70              POP      {r4-r6,pc}
;;;556    
                          ENDP

                  _DeselectItem PROC
;;;560    */
;;;561    static void _DeselectItem(MENU_Handle hObj, MENU_Obj* pObj) {
000662  b570              PUSH     {r4-r6,lr}
000664  4605              MOV      r5,r0
000666  460c              MOV      r4,r1
;;;562      if (pObj->IsSubmenuActive == 0) {
000668  f8940060          LDRB     r0,[r4,#0x60]
00066c  b948              CBNZ     r0,|L1.1666|
;;;563        _SetSelection(hObj, pObj, -1);
00066e  f04f32ff          MOV      r2,#0xffffffff
000672  4621              MOV      r1,r4
000674  4628              MOV      r0,r5
000676  f7fffffe          BL       _SetSelection
;;;564        _ReleaseCapture(hObj, pObj);
00067a  4621              MOV      r1,r4
00067c  4628              MOV      r0,r5
00067e  f7fffffe          BL       _ReleaseCapture
                  |L1.1666|
;;;565      }
;;;566    }
000682  bd70              POP      {r4-r6,pc}
;;;567    
                          ENDP

                  _ActivateItem PROC
;;;571    */
;;;572    static void _ActivateItem(MENU_Handle hObj, MENU_Obj* pObj, unsigned Index) {
000684  e92d41f0          PUSH     {r4-r8,lr}
000688  4607              MOV      r7,r0
00068a  460c              MOV      r4,r1
00068c  4616              MOV      r6,r2
;;;573      MENU_ITEM* pItem;
;;;574      pItem = (MENU_ITEM*)GUI_ARRAY_GetpItem(&pObj->ItemArray, Index);
00068e  4631              MOV      r1,r6
000690  f1040058          ADD      r0,r4,#0x58
000694  f7fffffe          BL       GUI_ARRAY_GetpItem
000698  4605              MOV      r5,r0
;;;575      if (pItem->hSubmenu == 0) {
00069a  8828              LDRH     r0,[r5,#0]
00069c  b970              CBNZ     r0,|L1.1724|
;;;576        if ((pItem->Flags & (MENU_IF_DISABLED | MENU_IF_SEPARATOR)) == 0) {
00069e  88a8              LDRH     r0,[r5,#4]
0006a0  f0100f03          TST      r0,#3
0006a4  d10a              BNE      |L1.1724|
;;;577          _ClosePopup(hObj, pObj);
0006a6  4621              MOV      r1,r4
0006a8  4638              MOV      r0,r7
0006aa  f7fffffe          BL       _ClosePopup
;;;578          /* Send item select message to owner. */
;;;579          MENU__SendMenuMessage(hObj, pObj->hOwner, MENU_ON_ITEMSELECT, pItem->Id);
0006ae  886b              LDRH     r3,[r5,#2]
0006b0  f9b4105c          LDRSH    r1,[r4,#0x5c]
0006b4  2200              MOVS     r2,#0
0006b6  4638              MOV      r0,r7
0006b8  f7fffffe          BL       MENU__SendMenuMessage
                  |L1.1724|
;;;580        }
;;;581      }
;;;582    }
0006bc  e8bd81f0          POP      {r4-r8,pc}
;;;583    
                          ENDP

                  _ActivateMenu PROC
;;;587    */
;;;588    static void _ActivateMenu(MENU_Handle hObj, MENU_Obj* pObj, unsigned Index) {
0006c0  e92d41f0          PUSH     {r4-r8,lr}
0006c4  4607              MOV      r7,r0
0006c6  460c              MOV      r4,r1
0006c8  4615              MOV      r5,r2
;;;589      if ((pObj->Flags & MENU_SF_OPEN_ON_POINTEROVER) == 0) {
0006ca  f8b4005e          LDRH     r0,[r4,#0x5e]
0006ce  f0100f02          TST      r0,#2
0006d2  d134              BNE      |L1.1854|
;;;590        MENU_ITEM* pItem;
;;;591        pItem = (MENU_ITEM*)GUI_ARRAY_GetpItem(&pObj->ItemArray, Index);
0006d4  4629              MOV      r1,r5
0006d6  f1040058          ADD      r0,r4,#0x58
0006da  f7fffffe          BL       GUI_ARRAY_GetpItem
0006de  4606              MOV      r6,r0
;;;592        if (pItem->hSubmenu) {
0006e0  8830              LDRH     r0,[r6,#0]
0006e2  b358              CBZ      r0,|L1.1852|
;;;593          if ((pItem->Flags & MENU_IF_DISABLED) == 0) {
0006e4  88b0              LDRH     r0,[r6,#4]
0006e6  f0100f01          TST      r0,#1
0006ea  d127              BNE      |L1.1852|
;;;594            if ((pObj->Flags & MENU_SF_ACTIVE) == 0) {
0006ec  f8b4005e          LDRH     r0,[r4,#0x5e]
0006f0  f0100f40          TST      r0,#0x40
0006f4  d110              BNE      |L1.1816|
;;;595              pObj->Flags |= MENU_SF_ACTIVE;
0006f6  f8b4005e          LDRH     r0,[r4,#0x5e]
0006fa  f0400040          ORR      r0,r0,#0x40
0006fe  f8a4005e          STRH     r0,[r4,#0x5e]
;;;596              _OpenSubmenu(hObj, pObj, Index);
000702  462a              MOV      r2,r5
000704  4621              MOV      r1,r4
000706  4638              MOV      r0,r7
000708  f7fffffe          BL       _OpenSubmenu
;;;597              _SetSelection(hObj, pObj, Index);
00070c  462a              MOV      r2,r5
00070e  4621              MOV      r1,r4
000710  4638              MOV      r0,r7
000712  f7fffffe          BL       _SetSelection
000716  e011              B        |L1.1852|
                  |L1.1816|
;;;598            } else if (pObj->Flags & MENU_SF_CLOSE_ON_SECOND_CLICK) {
000718  f8b4005e          LDRH     r0,[r4,#0x5e]
00071c  f0100f04          TST      r0,#4
000720  d00c              BEQ      |L1.1852|
;;;599              if ((int)Index == pObj->Sel) {
000722  6ee0              LDR      r0,[r4,#0x6c]
000724  42a8              CMP      r0,r5
000726  d109              BNE      |L1.1852|
;;;600                _CloseSubmenu(hObj, pObj);
000728  4621              MOV      r1,r4
00072a  4638              MOV      r0,r7
00072c  f7fffffe          BL       _CloseSubmenu
;;;601                pObj->Flags &= ~MENU_SF_ACTIVE;
000730  f8b4005e          LDRH     r0,[r4,#0x5e]
000734  f0200040          BIC      r0,r0,#0x40
000738  f8a4005e          STRH     r0,[r4,#0x5e]
                  |L1.1852|
;;;602              }
;;;603            }
;;;604          }
;;;605        }
;;;606      }
00073c  bf00              NOP      
                  |L1.1854|
;;;607    }
00073e  e8bd81f0          POP      {r4-r8,pc}
;;;608    
                          ENDP

                  _DeactivateMenu PROC
;;;612    */
;;;613    static void _DeactivateMenu(MENU_Handle hObj, MENU_Obj* pObj) {
000742  b570              PUSH     {r4-r6,lr}
000744  4605              MOV      r5,r0
000746  460c              MOV      r4,r1
;;;614      _CloseSubmenu(hObj, pObj);
000748  4621              MOV      r1,r4
00074a  4628              MOV      r0,r5
00074c  f7fffffe          BL       _CloseSubmenu
;;;615      if ((pObj->Flags & MENU_SF_OPEN_ON_POINTEROVER) == 0) {
000750  f8b4005e          LDRH     r0,[r4,#0x5e]
000754  f0100f02          TST      r0,#2
000758  d105              BNE      |L1.1894|
;;;616        pObj->Flags &= ~MENU_SF_ACTIVE;
00075a  f8b4005e          LDRH     r0,[r4,#0x5e]
00075e  f0200040          BIC      r0,r0,#0x40
000762  f8a4005e          STRH     r0,[r4,#0x5e]
                  |L1.1894|
;;;617      }
;;;618    }
000766  bd70              POP      {r4-r6,pc}
;;;619    
                          ENDP

                  _ForwardMouseOverMsg PROC
;;;623    */
;;;624    static int _ForwardMouseOverMsg(MENU_Handle hObj, MENU_Obj* pObj, int x, int y) {
000768  b510              PUSH     {r4,lr}
00076a  4604              MOV      r4,r0
;;;625    #if (GUI_SUPPORT_MOUSE)
;;;626      if ((pObj->IsSubmenuActive == 0) && !(pObj->Flags & MENU_SF_POPUP)) {
;;;627        if (_IsTopLevelMenu(hObj, pObj)) {
;;;628          WM_HWIN hBelow;
;;;629          x += WM_GetWindowOrgX(hObj);
;;;630          y += WM_GetWindowOrgY(hObj);
;;;631          hBelow = WM_Screen2hWin(x, y);
;;;632          if (hBelow && (hBelow != hObj)) {
;;;633            WM_MESSAGE Msg;
;;;634            GUI_PID_STATE State;
;;;635            x -= WM_GetWindowOrgX(hBelow);
;;;636            y -= WM_GetWindowOrgY(hBelow);
;;;637            State.Pressed = 0;
;;;638            State.x = x;
;;;639            State.y = y;
;;;640            Msg.Data.p = &State;
;;;641            Msg.MsgId = WM_MOUSEOVER;
;;;642            WM__SendMessage(hBelow, &Msg);
;;;643            return 1;
;;;644          }
;;;645        }
;;;646      }
;;;647    #endif
;;;648      return 0;
00076c  2000              MOVS     r0,#0
;;;649    }
00076e  bd10              POP      {r4,pc}
;;;650    
                          ENDP

                  _HandlePID PROC
;;;658    */
;;;659    static char _HandlePID(MENU_Handle hObj, MENU_Obj* pObj, int x, int y, int Pressed) {
000770  e92d47f0          PUSH     {r4-r10,lr}
000774  b086              SUB      sp,sp,#0x18
000776  4681              MOV      r9,r0
000778  460f              MOV      r7,r1
00077a  4615              MOV      r5,r2
00077c  461e              MOV      r6,r3
00077e  9c0e              LDR      r4,[sp,#0x38]
;;;660      GUI_PID_STATE PrevState;
;;;661      char XYInWidget = 0;
000780  f04f0a00          MOV      r10,#0
;;;662      WM_PID__GetPrevState(&PrevState);
000784  a803              ADD      r0,sp,#0xc
000786  f7fffffe          BL       WM_PID__GetPrevState
;;;663      /*
;;;664       * Check if coordinates are inside the widget.
;;;665       */
;;;666      if ((x >= 0) && (y >= 0)) {
00078a  2d00              CMP      r5,#0
00078c  db10              BLT      |L1.1968|
00078e  2e00              CMP      r6,#0
000790  db0e              BLT      |L1.1968|
;;;667        GUI_RECT r;
;;;668        WM__GetClientRectWin(&pObj->Widget.Win, &r);
000792  a901              ADD      r1,sp,#4
000794  4638              MOV      r0,r7
000796  f7fffffe          BL       WM__GetClientRectWin
;;;669        if ((x <= r.x1) && (y <= r.y1)) {
00079a  f9bd0008          LDRSH    r0,[sp,#8]
00079e  42a8              CMP      r0,r5
0007a0  db05              BLT      |L1.1966|
0007a2  f9bd000a          LDRSH    r0,[sp,#0xa]
0007a6  42b0              CMP      r0,r6
0007a8  db01              BLT      |L1.1966|
;;;670          XYInWidget = 1;
0007aa  f04f0a01          MOV      r10,#1
                  |L1.1966|
;;;671        }
;;;672      }
0007ae  bf00              NOP      
                  |L1.1968|
;;;673    
;;;674      if (XYInWidget) {
0007b0  f1ba0f00          CMP      r10,#0
0007b4  d050              BEQ      |L1.2136|
;;;675        int ItemIndex;
;;;676        ItemIndex = _GetItemFromPos(hObj, pObj, x, y);
0007b6  4633              MOV      r3,r6
0007b8  462a              MOV      r2,r5
0007ba  4639              MOV      r1,r7
0007bc  4648              MOV      r0,r9
0007be  f7fffffe          BL       _GetItemFromPos
0007c2  4680              MOV      r8,r0
;;;677        /* 
;;;678         * Handle PID when coordinates are inside the widget.
;;;679         */
;;;680        if (ItemIndex >= 0) {
0007c4  f1b80f00          CMP      r8,#0
0007c8  db2e              BLT      |L1.2088|
;;;681          /* 
;;;682           * Coordinates are inside the menu.
;;;683           */
;;;684          if (Pressed == 1) {
0007ca  2c01              CMP      r4,#1
0007cc  d10d              BNE      |L1.2026|
;;;685            if (PrevState.Pressed == 0) {  /* Clicked */
0007ce  f89d0014          LDRB     r0,[sp,#0x14]
0007d2  b920              CBNZ     r0,|L1.2014|
;;;686              _ActivateMenu(hObj, pObj, ItemIndex);
0007d4  4642              MOV      r2,r8
0007d6  4639              MOV      r1,r7
0007d8  4648              MOV      r0,r9
0007da  f7fffffe          BL       _ActivateMenu
                  |L1.2014|
;;;687            }
;;;688            _SelectItem(hObj, pObj, ItemIndex);
0007de  4642              MOV      r2,r8
0007e0  4639              MOV      r1,r7
0007e2  4648              MOV      r0,r9
0007e4  f7fffffe          BL       _SelectItem
0007e8  e032              B        |L1.2128|
                  |L1.2026|
;;;689          } else if ((Pressed == 0) && (PrevState.Pressed == 1)) {  /* Released */
0007ea  b94c              CBNZ     r4,|L1.2048|
0007ec  f89d0014          LDRB     r0,[sp,#0x14]
0007f0  2801              CMP      r0,#1
0007f2  d105              BNE      |L1.2048|
;;;690            _ActivateItem(hObj, pObj, ItemIndex);
0007f4  4642              MOV      r2,r8
0007f6  4639              MOV      r1,r7
0007f8  4648              MOV      r0,r9
0007fa  f7fffffe          BL       _ActivateItem
0007fe  e027              B        |L1.2128|
                  |L1.2048|
;;;691          } else if (Pressed < 0) {  /* Mouse moved */
000800  2c00              CMP      r4,#0
000802  da25              BGE      |L1.2128|
;;;692            if (_ForwardMouseOverMsg(hObj, pObj, x, y) == 0) {
000804  4633              MOV      r3,r6
000806  462a              MOV      r2,r5
000808  4639              MOV      r1,r7
00080a  4648              MOV      r0,r9
00080c  f7fffffe          BL       _ForwardMouseOverMsg
000810  b928              CBNZ     r0,|L1.2078|
;;;693              _SelectItem(hObj, pObj, ItemIndex);
000812  4642              MOV      r2,r8
000814  4639              MOV      r1,r7
000816  4648              MOV      r0,r9
000818  f7fffffe          BL       _SelectItem
00081c  e018              B        |L1.2128|
                  |L1.2078|
;;;694            } else {
;;;695              _DeselectItem(hObj, pObj);
00081e  4639              MOV      r1,r7
000820  4648              MOV      r0,r9
000822  f7fffffe          BL       _DeselectItem
000826  e013              B        |L1.2128|
                  |L1.2088|
;;;696            }
;;;697          }
;;;698        } else {
;;;699          /* 
;;;700           * Coordinates are outside the menu but inside the widget.
;;;701           */
;;;702          if (Pressed == 1) {
000828  2c01              CMP      r4,#1
00082a  d10b              BNE      |L1.2116|
;;;703            if (PrevState.Pressed == 0) {  /* Clicked */
00082c  f89d0014          LDRB     r0,[sp,#0x14]
000830  b918              CBNZ     r0,|L1.2106|
;;;704              /* 
;;;705               * User has clicked outside the menu. Close the active submenu.
;;;706               * The widget itself must be closed (if needed) by the owner.
;;;707               */
;;;708              _DeactivateMenu(hObj, pObj);
000832  4639              MOV      r1,r7
000834  4648              MOV      r0,r9
000836  f7fffffe          BL       _DeactivateMenu
                  |L1.2106|
;;;709            }
;;;710            _DeselectItem(hObj, pObj);
00083a  4639              MOV      r1,r7
00083c  4648              MOV      r0,r9
00083e  f7fffffe          BL       _DeselectItem
000842  e005              B        |L1.2128|
                  |L1.2116|
;;;711          } else if (Pressed < 0) {  /* Moved out or mouse moved */
000844  2c00              CMP      r4,#0
000846  da03              BGE      |L1.2128|
;;;712            _DeselectItem(hObj, pObj);
000848  4639              MOV      r1,r7
00084a  4648              MOV      r0,r9
00084c  f7fffffe          BL       _DeselectItem
                  |L1.2128|
;;;713          }
;;;714        }
;;;715        return 0;
000850  2000              MOVS     r0,#0
                  |L1.2130|
;;;716      } else {
;;;717        /* 
;;;718         * Handle PID when coordinates are outside the widget.
;;;719         */
;;;720        if ((Pressed == 1) && (PrevState.Pressed == 0)) {
;;;721          /* 
;;;722           * User has clicked outside the menu. Close the active submenu.
;;;723           * The widget itself must be closed (if needed) by the owner.
;;;724           */
;;;725          _DeactivateMenu(hObj, pObj);
;;;726          _ClosePopup(hObj, pObj);
;;;727        }
;;;728        _DeselectItem(hObj, pObj);
;;;729        _ForwardMouseOverMsg(hObj, pObj, x, y);
;;;730      }
;;;731      return 1;   /* Coordinates are not in widget, we need to forward PID message to owner */
;;;732    }
000852  b006              ADD      sp,sp,#0x18
000854  e8bd87f0          POP      {r4-r10,pc}
                  |L1.2136|
000858  2c01              CMP      r4,#1                 ;720
00085a  d10a              BNE      |L1.2162|
00085c  f89d0014          LDRB     r0,[sp,#0x14]         ;720
000860  b938              CBNZ     r0,|L1.2162|
000862  4639              MOV      r1,r7                 ;725
000864  4648              MOV      r0,r9                 ;725
000866  f7fffffe          BL       _DeactivateMenu
00086a  4639              MOV      r1,r7                 ;726
00086c  4648              MOV      r0,r9                 ;726
00086e  f7fffffe          BL       _ClosePopup
                  |L1.2162|
000872  4639              MOV      r1,r7                 ;728
000874  4648              MOV      r0,r9                 ;728
000876  f7fffffe          BL       _DeselectItem
00087a  4633              MOV      r3,r6                 ;729
00087c  462a              MOV      r2,r5                 ;729
00087e  4639              MOV      r1,r7                 ;729
000880  4648              MOV      r0,r9                 ;729
000882  f7fffffe          BL       _ForwardMouseOverMsg
000886  2001              MOVS     r0,#1                 ;731
000888  e7e3              B        |L1.2130|
;;;733    
                          ENDP

                  _ForwardPIDMsgToOwner PROC
;;;737    */
;;;738    static void _ForwardPIDMsgToOwner(MENU_Handle hObj, MENU_Obj* pObj, WM_MESSAGE* pMsg) {
00088a  e92d47f0          PUSH     {r4-r10,lr}
00088e  4680              MOV      r8,r0
000890  460e              MOV      r6,r1
000892  4614              MOV      r4,r2
;;;739      if (_IsTopLevelMenu(hObj, pObj) == 0) {
000894  4631              MOV      r1,r6
000896  4640              MOV      r0,r8
000898  f7fffffe          BL       _IsTopLevelMenu
00089c  bb58              CBNZ     r0,|L1.2294|
;;;740        WM_HWIN hOwner;
;;;741        hOwner = pObj->hOwner ? pObj->hOwner : WM_GetParent(hObj);
00089e  f8b6005c          LDRH     r0,[r6,#0x5c]
0008a2  b110              CBZ      r0,|L1.2218|
0008a4  f9b6005c          LDRSH    r0,[r6,#0x5c]
0008a8  e002              B        |L1.2224|
                  |L1.2218|
0008aa  4640              MOV      r0,r8
0008ac  f7fffffe          BL       WM_GetParent
                  |L1.2224|
0008b0  b207              SXTH     r7,r0
;;;742        if (hOwner) {
0008b2  b1ff              CBZ      r7,|L1.2292|
;;;743          if (pMsg->Data.p) {
0008b4  68a0              LDR      r0,[r4,#8]
0008b6  b1c8              CBZ      r0,|L1.2284|
;;;744            GUI_PID_STATE* pState;
;;;745            pState = (GUI_PID_STATE*)pMsg->Data.p;
0008b8  68a5              LDR      r5,[r4,#8]
;;;746            pState->x += WM_GetWindowOrgX(hObj) - WM_GetWindowOrgX(hOwner);
0008ba  4640              MOV      r0,r8
0008bc  f7fffffe          BL       WM_GetWindowOrgX
0008c0  4681              MOV      r9,r0
0008c2  4638              MOV      r0,r7
0008c4  f7fffffe          BL       WM_GetWindowOrgX
0008c8  eba90000          SUB      r0,r9,r0
0008cc  6829              LDR      r1,[r5,#0]
0008ce  4408              ADD      r0,r0,r1
0008d0  6028              STR      r0,[r5,#0]
;;;747            pState->y += WM_GetWindowOrgY(hObj) - WM_GetWindowOrgY(hOwner);
0008d2  4640              MOV      r0,r8
0008d4  f7fffffe          BL       WM_GetWindowOrgY
0008d8  4681              MOV      r9,r0
0008da  4638              MOV      r0,r7
0008dc  f7fffffe          BL       WM_GetWindowOrgY
0008e0  eba90000          SUB      r0,r9,r0
0008e4  6869              LDR      r1,[r5,#4]
0008e6  4408              ADD      r0,r0,r1
0008e8  6068              STR      r0,[r5,#4]
;;;748          }
0008ea  bf00              NOP      
                  |L1.2284|
;;;749          WM__SendMessage(hOwner, pMsg);
0008ec  4621              MOV      r1,r4
0008ee  4638              MOV      r0,r7
0008f0  f7fffffe          BL       WM__SendMessage
                  |L1.2292|
;;;750        }
;;;751      }
0008f4  bf00              NOP      
                  |L1.2294|
;;;752    }
0008f6  e8bd87f0          POP      {r4-r10,pc}
;;;753    
                          ENDP

                  MENU__ResizeMenu PROC
;;;1061   */
;;;1062   void MENU__ResizeMenu(MENU_Handle hObj, MENU_Obj* pObj) {
0008fa  e92d41f0          PUSH     {r4-r8,lr}
0008fe  4604              MOV      r4,r0
000900  460d              MOV      r5,r1
;;;1063     int xSize, ySize;
;;;1064     xSize = _CalcWindowSizeX(hObj, pObj);
000902  4629              MOV      r1,r5
000904  4620              MOV      r0,r4
000906  f7fffffe          BL       _CalcWindowSizeX
00090a  4606              MOV      r6,r0
;;;1065     ySize = _CalcWindowSizeY(hObj, pObj);
00090c  4629              MOV      r1,r5
00090e  4620              MOV      r0,r4
000910  f7fffffe          BL       _CalcWindowSizeY
000914  4607              MOV      r7,r0
;;;1066     WM_SetSize(hObj, xSize, ySize);
000916  463a              MOV      r2,r7
000918  4631              MOV      r1,r6
00091a  4620              MOV      r0,r4
00091c  f7fffffe          BL       WM_SetSize
;;;1067     WM_InvalidateWindow(hObj);
000920  4620              MOV      r0,r4
000922  f7fffffe          BL       WM_InvalidateWindow
;;;1068   }
000926  e8bd81f0          POP      {r4-r8,pc}
;;;1069   
                          ENDP

                  _OnMenu PROC
;;;763    */
;;;764    static void _OnMenu(MENU_Handle hObj, MENU_Obj* pObj, WM_MESSAGE* pMsg) {
00092a  e92d41f0          PUSH     {r4-r8,lr}
00092e  4607              MOV      r7,r0
000930  460c              MOV      r4,r1
000932  4615              MOV      r5,r2
;;;765      const MENU_MSG_DATA* pData = (const MENU_MSG_DATA*)pMsg->Data.p;
000934  f8d58008          LDR      r8,[r5,#8]
;;;766      if (pData) {
000938  f1b80f00          CMP      r8,#0
00093c  d047              BEQ      |L1.2510|
;;;767        switch (pData->MsgType) {
00093e  f8b80000          LDRH     r0,[r8,#0]
000942  2806              CMP      r0,#6
000944  d242              BCS      |L1.2508|
000946  e8dff000          TBB      [pc,r0]
00094a  0310              DCB      0x03,0x10
00094c  1122393e          DCB      0x11,0x22,0x39,0x3e
;;;768        case MENU_ON_ITEMSELECT:
;;;769          _DeactivateMenu(hObj, pObj);
000950  4621              MOV      r1,r4
000952  4638              MOV      r0,r7
000954  f7fffffe          BL       _DeactivateMenu
;;;770          _DeselectItem(hObj, pObj);
000958  4621              MOV      r1,r4
00095a  4638              MOV      r0,r7
00095c  f7fffffe          BL       _DeselectItem
;;;771          _ClosePopup(hObj, pObj);
000960  4621              MOV      r1,r4
000962  4638              MOV      r0,r7
000964  f7fffffe          BL       _ClosePopup
;;;772          /* No break here. We need to forward message to owner. */
;;;773        case MENU_ON_INITMENU:
000968  bf00              NOP      
;;;774        case MENU_ON_INITSUBMENU:
00096a  bf00              NOP      
;;;775          /* Forward message to owner. */
;;;776          {
;;;777            WM_HWIN hOwner;
;;;778            hOwner = pObj->hOwner ? pObj->hOwner : WM_GetParent(hObj);
00096c  f8b4005c          LDRH     r0,[r4,#0x5c]
000970  b110              CBZ      r0,|L1.2424|
000972  f9b4005c          LDRSH    r0,[r4,#0x5c]
000976  e002              B        |L1.2430|
                  |L1.2424|
000978  4638              MOV      r0,r7
00097a  f7fffffe          BL       WM_GetParent
                  |L1.2430|
00097e  b206              SXTH     r6,r0
;;;779            if (hOwner) {
000980  b126              CBZ      r6,|L1.2444|
;;;780              pMsg->hWinSrc = hObj;
000982  80ef              STRH     r7,[r5,#6]
;;;781              WM__SendMessage(hOwner, pMsg);
000984  4629              MOV      r1,r5
000986  4630              MOV      r0,r6
000988  f7fffffe          BL       WM__SendMessage
                  |L1.2444|
;;;782            }
;;;783          }
;;;784          break;
00098c  e01e              B        |L1.2508|
;;;785        case MENU_ON_OPEN:
;;;786          pObj->Sel = -1;
00098e  f04f30ff          MOV      r0,#0xffffffff
000992  f104045c          ADD      r4,r4,#0x5c
000996  6120              STR      r0,[r4,#0x10]
;;;787          pObj->IsSubmenuActive = 0;
000998  f04f0000          MOV      r0,#0
00099c  7120              STRB     r0,[r4,#4]
;;;788          pObj->Flags |= MENU_SF_ACTIVE | MENU_SF_OPEN_ON_POINTEROVER;
00099e  8860              LDRH     r0,[r4,#2]
0009a0  f0400042          ORR      r0,r0,#0x42
0009a4  8060              STRH     r0,[r4,#2]
0009a6  f1a4045c          SUB      r4,r4,#0x5c
;;;789          _SetCapture(hObj, pObj);
0009aa  4621              MOV      r1,r4
0009ac  4638              MOV      r0,r7
0009ae  f7fffffe          BL       _SetCapture
;;;790          MENU__ResizeMenu(hObj, pObj);
0009b2  4621              MOV      r1,r4
0009b4  4638              MOV      r0,r7
0009b6  f7fffffe          BL       MENU__ResizeMenu
;;;791          break;
0009ba  e007              B        |L1.2508|
;;;792        case MENU_ON_CLOSE:
;;;793          _CloseSubmenu(hObj, pObj);
0009bc  4621              MOV      r1,r4
0009be  4638              MOV      r0,r7
0009c0  f7fffffe          BL       _CloseSubmenu
;;;794          break;
0009c4  e002              B        |L1.2508|
;;;795        case MENU_IS_MENU:
;;;796          pMsg->Data.v = 1;
0009c6  2001              MOVS     r0,#1
0009c8  60a8              STR      r0,[r5,#8]
;;;797          break;
0009ca  bf00              NOP      
                  |L1.2508|
0009cc  bf00              NOP                            ;784
                  |L1.2510|
;;;798        }
;;;799      }
;;;800    }
0009ce  e8bd81f0          POP      {r4-r8,pc}
;;;801    
                          ENDP

                  _OnTouch PROC
;;;805    */
;;;806    static char _OnTouch(MENU_Handle hObj, MENU_Obj* pObj, WM_MESSAGE* pMsg) {
0009d2  b5f8              PUSH     {r3-r7,lr}
0009d4  4606              MOV      r6,r0
0009d6  460f              MOV      r7,r1
0009d8  4615              MOV      r5,r2
;;;807      const GUI_PID_STATE* pState = (const GUI_PID_STATE*)pMsg->Data.p;
0009da  68ac              LDR      r4,[r5,#8]
;;;808      if (pState) {  /* Something happened in our area (pressed or released) */
0009dc  b144              CBZ      r4,|L1.2544|
;;;809        return _HandlePID(hObj, pObj, pState->x, pState->y, pState->Pressed);
0009de  7a23              LDRB     r3,[r4,#8]
0009e0  9300              STR      r3,[sp,#0]
0009e2  4639              MOV      r1,r7
0009e4  4630              MOV      r0,r6
0009e6  e9d42300          LDRD     r2,r3,[r4,#0]
0009ea  f7fffffe          BL       _HandlePID
                  |L1.2542|
;;;810      }
;;;811      return _HandlePID(hObj, pObj, -1, -1, -1); /* Moved out */
;;;812    }
0009ee  bdf8              POP      {r3-r7,pc}
                  |L1.2544|
0009f0  f04f33ff          MOV      r3,#0xffffffff        ;811
0009f4  461a              MOV      r2,r3                 ;811
0009f6  4639              MOV      r1,r7                 ;811
0009f8  4630              MOV      r0,r6                 ;811
0009fa  9300              STR      r3,[sp,#0]            ;811
0009fc  f7fffffe          BL       _HandlePID
000a00  e7f5              B        |L1.2542|
;;;813    
                          ENDP

                  _SetPaintColors PROC
;;;831    */
;;;832    static void _SetPaintColors(const MENU_Obj* pObj, const MENU_ITEM* pItem, int ItemIndex) {
000a02  e92d41f0          PUSH     {r4-r8,lr}
000a06  4604              MOV      r4,r0
000a08  460e              MOV      r6,r1
000a0a  4690              MOV      r8,r2
;;;833      char Selected;
;;;834      unsigned ColorIndex;
;;;835      Selected = (ItemIndex == pObj->Sel) ? 1 : 0;
000a0c  6ee0              LDR      r0,[r4,#0x6c]
000a0e  4540              CMP      r0,r8
000a10  d101              BNE      |L1.2582|
000a12  2001              MOVS     r0,#1
000a14  e000              B        |L1.2584|
                  |L1.2582|
000a16  2000              MOVS     r0,#0
                  |L1.2584|
000a18  b2c7              UXTB     r7,r0
;;;836      if (pObj->IsSubmenuActive && Selected) {
000a1a  f8940060          LDRB     r0,[r4,#0x60]
000a1e  b110              CBZ      r0,|L1.2598|
000a20  b10f              CBZ      r7,|L1.2598|
;;;837        ColorIndex = MENU_CI_ACTIVE_SUBMENU;
000a22  2504              MOVS     r5,#4
000a24  e016              B        |L1.2644|
                  |L1.2598|
;;;838      } else if (pItem->Flags & MENU_IF_SEPARATOR) {
000a26  88b0              LDRH     r0,[r6,#4]
000a28  f0100f02          TST      r0,#2
000a2c  d001              BEQ      |L1.2610|
;;;839        ColorIndex = MENU_CI_ENABLED;
000a2e  2500              MOVS     r5,#0
000a30  e010              B        |L1.2644|
                  |L1.2610|
;;;840      } else {
;;;841        ColorIndex = (Selected) ? MENU_CI_SELECTED : MENU_CI_ENABLED;
000a32  b10f              CBZ      r7,|L1.2616|
000a34  2001              MOVS     r0,#1
000a36  e000              B        |L1.2618|
                  |L1.2616|
000a38  2000              MOVS     r0,#0
                  |L1.2618|
000a3a  4605              MOV      r5,r0
;;;842        if (pItem->Flags & MENU_IF_DISABLED) {
000a3c  88b0              LDRH     r0,[r6,#4]
000a3e  f0100f01          TST      r0,#1
000a42  d007              BEQ      |L1.2644|
;;;843          if (pObj->Flags & MENU_CF_HIDE_DISABLED_SEL) {
000a44  f8b4005e          LDRH     r0,[r4,#0x5e]
000a48  f0100f08          TST      r0,#8
000a4c  d001              BEQ      |L1.2642|
;;;844            ColorIndex = MENU_CI_DISABLED;
000a4e  2502              MOVS     r5,#2
000a50  e000              B        |L1.2644|
                  |L1.2642|
;;;845          } else {
;;;846            ColorIndex += MENU_CI_DISABLED;
000a52  1cad              ADDS     r5,r5,#2
                  |L1.2644|
;;;847          }
;;;848        }
;;;849      }
;;;850      GUI_SetBkColor(pObj->Props.aBkColor[ColorIndex]);
000a54  f104013c          ADD      r1,r4,#0x3c
000a58  f8510025          LDR      r0,[r1,r5,LSL #2]
000a5c  f7fffffe          BL       GUI_SetBkColor
;;;851      GUI_SetColor(pObj->Props.aTextColor[ColorIndex]);
000a60  f1040128          ADD      r1,r4,#0x28
000a64  f8510025          LDR      r0,[r1,r5,LSL #2]
000a68  f7fffffe          BL       GUI_SetColor
;;;852    }
000a6c  e8bd81f0          POP      {r4-r8,pc}
;;;853    
                          ENDP

                  _OnPaint PROC
;;;857    */
;;;858    static void _OnPaint(MENU_Handle hObj, MENU_Obj* pObj) {
000a70  e92d4ff3          PUSH     {r0,r1,r4-r11,lr}
000a74  b089              SUB      sp,sp,#0x24
000a76  460c              MOV      r4,r1
;;;859      GUI_RECT FillRect, TextRect;
;;;860      MENU_ITEM* pItem;
;;;861      unsigned TextWidth, NumItems, i;
;;;862      U8 BorderLeft   = pObj->Props.aBorder[MENU_BI_LEFT];
000a78  f8949050          LDRB     r9,[r4,#0x50]
;;;863      U8 BorderTop    = pObj->Props.aBorder[MENU_BI_TOP];
000a7c  f894a052          LDRB     r10,[r4,#0x52]
;;;864      int FontHeight  = GUI_GetYDistOfFont(pObj->Props.pFont);
000a80  6d60              LDR      r0,[r4,#0x54]
000a82  f7fffffe          BL       GUI_GetYDistOfFont
000a86  9003              STR      r0,[sp,#0xc]
;;;865      int EffectSize  = _GetEffectSize(hObj, pObj);
000a88  4621              MOV      r1,r4
000a8a  9809              LDR      r0,[sp,#0x24]
000a8c  f7fffffe          BL       _GetEffectSize
000a90  4607              MOV      r7,r0
;;;866      NumItems = MENU__GetNumItems(pObj);
000a92  4620              MOV      r0,r4
000a94  f7fffffe          BL       MENU__GetNumItems
000a98  9004              STR      r0,[sp,#0x10]
;;;867      WM__GetClientRectWin(&pObj->Widget.Win, &FillRect);
000a9a  a907              ADD      r1,sp,#0x1c
000a9c  4620              MOV      r0,r4
000a9e  f7fffffe          BL       WM__GetClientRectWin
;;;868      GUI__ReduceRect(&FillRect, &FillRect, EffectSize);
000aa2  463a              MOV      r2,r7
000aa4  a907              ADD      r1,sp,#0x1c
000aa6  a807              ADD      r0,sp,#0x1c
000aa8  f7fffffe          BL       GUI__ReduceRect
;;;869      GUI_SetFont(pObj->Props.pFont);
000aac  6d60              LDR      r0,[r4,#0x54]
000aae  f7fffffe          BL       GUI_SetFont
;;;870      if (pObj->Flags & MENU_SF_VERTICAL) {
000ab2  f8b4005e          LDRH     r0,[r4,#0x5e]
000ab6  f0100f01          TST      r0,#1
000aba  d06a              BEQ      |L1.2962|
;;;871        int ItemHeight, xSize;
;;;872        xSize = _CalcMenuSizeX(hObj, pObj);
000abc  4621              MOV      r1,r4
000abe  9809              LDR      r0,[sp,#0x24]
000ac0  f7fffffe          BL       _CalcMenuSizeX
000ac4  9002              STR      r0,[sp,#8]
;;;873        FillRect.x1 = xSize - EffectSize - 1;
000ac6  9802              LDR      r0,[sp,#8]
000ac8  1bc0              SUBS     r0,r0,r7
000aca  1e40              SUBS     r0,r0,#1
000acc  b200              SXTH     r0,r0
000ace  f8ad0020          STRH     r0,[sp,#0x20]
;;;874        TextRect.x0 = FillRect.x0 + BorderLeft;
000ad2  f8bd001c          LDRH     r0,[sp,#0x1c]
000ad6  4448              ADD      r0,r0,r9
000ad8  b200              SXTH     r0,r0
000ada  f8ad0014          STRH     r0,[sp,#0x14]
;;;875        for (i = 0; i < NumItems; i++) {
000ade  2600              MOVS     r6,#0
000ae0  e053              B        |L1.2954|
                  |L1.2786|
;;;876          pItem = (MENU_ITEM*)GUI_ARRAY_GetpItem(&pObj->ItemArray, i);
000ae2  4631              MOV      r1,r6
000ae4  f1040058          ADD      r0,r4,#0x58
000ae8  f7fffffe          BL       GUI_ARRAY_GetpItem
000aec  4605              MOV      r5,r0
;;;877          ItemHeight = _GetItemHeight(hObj, pObj, i);
000aee  4632              MOV      r2,r6
000af0  4621              MOV      r1,r4
000af2  9809              LDR      r0,[sp,#0x24]
000af4  f7fffffe          BL       _GetItemHeight
000af8  4683              MOV      r11,r0
;;;878          _SetPaintColors(pObj, pItem, i);
000afa  4632              MOV      r2,r6
000afc  4629              MOV      r1,r5
000afe  4620              MOV      r0,r4
000b00  f7fffffe          BL       _SetPaintColors
;;;879          FillRect.y1 = FillRect.y0 + ItemHeight - 1;
000b04  f8bd001e          LDRH     r0,[sp,#0x1e]
000b08  4458              ADD      r0,r0,r11
000b0a  1e40              SUBS     r0,r0,#1
000b0c  b200              SXTH     r0,r0
000b0e  f8ad0022          STRH     r0,[sp,#0x22]
;;;880          if (pItem->Flags & MENU_IF_SEPARATOR) {
000b12  88a8              LDRH     r0,[r5,#4]
000b14  f0100f02          TST      r0,#2
000b18  d012              BEQ      |L1.2880|
;;;881            GUI_ClearRectEx(&FillRect);
000b1a  a807              ADD      r0,sp,#0x1c
000b1c  f7fffffe          BL       GUI_ClearRectEx
;;;882            GUI_SetColor(0x7C7C7C);
000b20  48ff              LDR      r0,|L1.3872|
000b22  f7fffffe          BL       GUI_SetColor
;;;883            GUI_DrawHLine(FillRect.y0 + BorderTop + 1, FillRect.x0 + 2, FillRect.x1 - 2);
000b26  f9bd3020          LDRSH    r3,[sp,#0x20]
000b2a  1e9a              SUBS     r2,r3,#2
000b2c  f9bd301c          LDRSH    r3,[sp,#0x1c]
000b30  1c99              ADDS     r1,r3,#2
000b32  f9bd301e          LDRSH    r3,[sp,#0x1e]
000b36  4453              ADD      r3,r3,r10
000b38  1c58              ADDS     r0,r3,#1
000b3a  f7fffffe          BL       GUI_DrawHLine
000b3e  e01d              B        |L1.2940|
                  |L1.2880|
;;;884          } else {
;;;885            TextWidth = pItem->TextWidth;
000b40  f8d58008          LDR      r8,[r5,#8]
;;;886            TextRect.x1 = TextRect.x0 + TextWidth - 1;
000b44  f8bd0014          LDRH     r0,[sp,#0x14]
000b48  4440              ADD      r0,r0,r8
000b4a  1e40              SUBS     r0,r0,#1
000b4c  b200              SXTH     r0,r0
000b4e  f8ad0018          STRH     r0,[sp,#0x18]
;;;887            TextRect.y0 = FillRect.y0 + BorderTop;
000b52  f8bd001e          LDRH     r0,[sp,#0x1e]
000b56  4450              ADD      r0,r0,r10
000b58  b200              SXTH     r0,r0
000b5a  f8ad0016          STRH     r0,[sp,#0x16]
;;;888            TextRect.y1 = TextRect.y0 + FontHeight - 1;
000b5e  f8bd1016          LDRH     r1,[sp,#0x16]
000b62  9803              LDR      r0,[sp,#0xc]
000b64  4408              ADD      r0,r0,r1
000b66  1e40              SUBS     r0,r0,#1
000b68  b200              SXTH     r0,r0
000b6a  f8ad001a          STRH     r0,[sp,#0x1a]
;;;889            WIDGET__FillStringInRect(pItem->acText, &FillRect, &TextRect, &TextRect);
000b6e  ab05              ADD      r3,sp,#0x14
000b70  aa05              ADD      r2,sp,#0x14
000b72  a907              ADD      r1,sp,#0x1c
000b74  f105000c          ADD      r0,r5,#0xc
000b78  f7fffffe          BL       WIDGET__FillStringInRect
                  |L1.2940|
;;;890          }
;;;891          FillRect.y0 += ItemHeight;
000b7c  f8bd001e          LDRH     r0,[sp,#0x1e]
000b80  4458              ADD      r0,r0,r11
000b82  b200              SXTH     r0,r0
000b84  f8ad001e          STRH     r0,[sp,#0x1e]
000b88  1c76              ADDS     r6,r6,#1              ;875
                  |L1.2954|
000b8a  9804              LDR      r0,[sp,#0x10]         ;875
000b8c  4286              CMP      r6,r0                 ;875
000b8e  d3a8              BCC      |L1.2786|
;;;892        }
;;;893      } else {
000b90  e06a              B        |L1.3176|
                  |L1.2962|
;;;894        int ItemWidth, ySize;
;;;895        ySize = _CalcMenuSizeY(hObj, pObj);
000b92  4621              MOV      r1,r4
000b94  9809              LDR      r0,[sp,#0x24]
000b96  f7fffffe          BL       _CalcMenuSizeY
000b9a  9002              STR      r0,[sp,#8]
;;;896        FillRect.y1 = ySize - EffectSize - 1;
000b9c  9802              LDR      r0,[sp,#8]
000b9e  1bc0              SUBS     r0,r0,r7
000ba0  1e40              SUBS     r0,r0,#1
000ba2  b200              SXTH     r0,r0
000ba4  f8ad0022          STRH     r0,[sp,#0x22]
;;;897        TextRect.y0 = FillRect.y0 + BorderTop;
000ba8  f8bd001e          LDRH     r0,[sp,#0x1e]
000bac  4450              ADD      r0,r0,r10
000bae  b200              SXTH     r0,r0
000bb0  f8ad0016          STRH     r0,[sp,#0x16]
;;;898        TextRect.y1 = TextRect.y0 + FontHeight - 1;
000bb4  f8bd1016          LDRH     r1,[sp,#0x16]
000bb8  9803              LDR      r0,[sp,#0xc]
000bba  4408              ADD      r0,r0,r1
000bbc  1e40              SUBS     r0,r0,#1
000bbe  b200              SXTH     r0,r0
000bc0  f8ad001a          STRH     r0,[sp,#0x1a]
;;;899        for (i = 0; i < NumItems; i++) {
000bc4  2600              MOVS     r6,#0
000bc6  e04b              B        |L1.3168|
                  |L1.3016|
;;;900          pItem = (MENU_ITEM*)GUI_ARRAY_GetpItem(&pObj->ItemArray, i);
000bc8  4631              MOV      r1,r6
000bca  f1040058          ADD      r0,r4,#0x58
000bce  f7fffffe          BL       GUI_ARRAY_GetpItem
000bd2  4605              MOV      r5,r0
;;;901          ItemWidth = _GetItemWidth(hObj, pObj, i);
000bd4  4632              MOV      r2,r6
000bd6  4621              MOV      r1,r4
000bd8  9809              LDR      r0,[sp,#0x24]
000bda  f7fffffe          BL       _GetItemWidth
000bde  4683              MOV      r11,r0
;;;902          _SetPaintColors(pObj, pItem, i);
000be0  4632              MOV      r2,r6
000be2  4629              MOV      r1,r5
000be4  4620              MOV      r0,r4
000be6  f7fffffe          BL       _SetPaintColors
;;;903          FillRect.x1 = FillRect.x0 + ItemWidth - 1;
000bea  f8bd001c          LDRH     r0,[sp,#0x1c]
000bee  4458              ADD      r0,r0,r11
000bf0  1e40              SUBS     r0,r0,#1
000bf2  b200              SXTH     r0,r0
000bf4  f8ad0020          STRH     r0,[sp,#0x20]
;;;904          if (pItem->Flags & MENU_IF_SEPARATOR) {
000bf8  88a8              LDRH     r0,[r5,#4]
000bfa  f0100f02          TST      r0,#2
000bfe  d012              BEQ      |L1.3110|
;;;905            GUI_ClearRectEx(&FillRect);
000c00  a807              ADD      r0,sp,#0x1c
000c02  f7fffffe          BL       GUI_ClearRectEx
;;;906            GUI_SetColor(0x7C7C7C);
000c06  48c6              LDR      r0,|L1.3872|
000c08  f7fffffe          BL       GUI_SetColor
;;;907            GUI_DrawVLine(FillRect.x0 + BorderLeft + 1, FillRect.y0 + 2, FillRect.y1 - 2);
000c0c  f9bd3022          LDRSH    r3,[sp,#0x22]
000c10  1e9a              SUBS     r2,r3,#2
000c12  f9bd301e          LDRSH    r3,[sp,#0x1e]
000c16  1c99              ADDS     r1,r3,#2
000c18  f9bd301c          LDRSH    r3,[sp,#0x1c]
000c1c  444b              ADD      r3,r3,r9
000c1e  1c58              ADDS     r0,r3,#1
000c20  f7fffffe          BL       GUI_DrawVLine
000c24  e015              B        |L1.3154|
                  |L1.3110|
;;;908          } else {
;;;909            TextWidth = pItem->TextWidth;
000c26  f8d58008          LDR      r8,[r5,#8]
;;;910            TextRect.x0 = FillRect.x0 + BorderLeft;
000c2a  f8bd001c          LDRH     r0,[sp,#0x1c]
000c2e  4448              ADD      r0,r0,r9
000c30  b200              SXTH     r0,r0
000c32  f8ad0014          STRH     r0,[sp,#0x14]
;;;911            TextRect.x1 = TextRect.x0 + TextWidth - 1;
000c36  f8bd0014          LDRH     r0,[sp,#0x14]
000c3a  4440              ADD      r0,r0,r8
000c3c  1e40              SUBS     r0,r0,#1
000c3e  b200              SXTH     r0,r0
000c40  f8ad0018          STRH     r0,[sp,#0x18]
;;;912            WIDGET__FillStringInRect(pItem->acText, &FillRect, &TextRect, &TextRect);
000c44  ab05              ADD      r3,sp,#0x14
000c46  aa05              ADD      r2,sp,#0x14
000c48  a907              ADD      r1,sp,#0x1c
000c4a  f105000c          ADD      r0,r5,#0xc
000c4e  f7fffffe          BL       WIDGET__FillStringInRect
                  |L1.3154|
;;;913          }
;;;914          FillRect.x0 += ItemWidth;
000c52  f8bd001c          LDRH     r0,[sp,#0x1c]
000c56  4458              ADD      r0,r0,r11
000c58  b200              SXTH     r0,r0
000c5a  f8ad001c          STRH     r0,[sp,#0x1c]
000c5e  1c76              ADDS     r6,r6,#1              ;899
                  |L1.3168|
000c60  9804              LDR      r0,[sp,#0x10]         ;899
000c62  4286              CMP      r6,r0                 ;899
000c64  d3b0              BCC      |L1.3016|
;;;915        }
;;;916      }
000c66  bf00              NOP      
                  |L1.3176|
;;;917      if (pObj->Width || pObj->Height) {
000c68  6e60              LDR      r0,[r4,#0x64]
000c6a  b908              CBNZ     r0,|L1.3184|
000c6c  6ea0              LDR      r0,[r4,#0x68]
000c6e  b300              CBZ      r0,|L1.3250|
                  |L1.3184|
;;;918        GUI_RECT r;
;;;919        WM__GetClientRectWin(&pObj->Widget.Win, &r);
000c70  a901              ADD      r1,sp,#4
000c72  4620              MOV      r0,r4
000c74  f7fffffe          BL       WM__GetClientRectWin
;;;920        GUI__ReduceRect(&r, &r, EffectSize);
000c78  463a              MOV      r2,r7
000c7a  a901              ADD      r1,sp,#4
000c7c  a801              ADD      r0,sp,#4
000c7e  f7fffffe          BL       GUI__ReduceRect
;;;921        GUI_SetBkColor(pObj->Props.aBkColor[MENU_CI_ENABLED]);
000c82  6be0              LDR      r0,[r4,#0x3c]
000c84  f7fffffe          BL       GUI_SetBkColor
;;;922        GUI_ClearRect(FillRect.x1 + 1, EffectSize, r.x1, FillRect.y1);
000c88  f9bd3022          LDRSH    r3,[sp,#0x22]
000c8c  f9bd2008          LDRSH    r2,[sp,#8]
000c90  f9bd1020          LDRSH    r1,[sp,#0x20]
000c94  1c48              ADDS     r0,r1,#1
000c96  4639              MOV      r1,r7
000c98  f7fffffe          BL       GUI_ClearRect
;;;923        GUI_ClearRect(EffectSize, FillRect.y1 + 1, r.x1, r.y1);
000c9c  f9bd300a          LDRSH    r3,[sp,#0xa]
000ca0  f9bd2008          LDRSH    r2,[sp,#8]
000ca4  f9bd0022          LDRSH    r0,[sp,#0x22]
000ca8  1c41              ADDS     r1,r0,#1
000caa  4638              MOV      r0,r7
000cac  f7fffffe          BL       GUI_ClearRect
;;;924      }
000cb0  bf00              NOP      
                  |L1.3250|
;;;925      /* Draw 3D effect (if configured) */
;;;926      if (_HasEffect(hObj, pObj)) {
000cb2  4621              MOV      r1,r4
000cb4  9809              LDR      r0,[sp,#0x24]
000cb6  f7fffffe          BL       _HasEffect
000cba  b110              CBZ      r0,|L1.3266|
;;;927        pObj->Widget.pEffect->pfDrawUp();
000cbc  6a21              LDR      r1,[r4,#0x20]
000cbe  6808              LDR      r0,[r1,#0]
000cc0  4780              BLX      r0
                  |L1.3266|
;;;928      }
;;;929    }
000cc2  b00b              ADD      sp,sp,#0x2c
000cc4  e8bd8ff0          POP      {r4-r11,pc}
;;;930    
                          ENDP

                  _MENU_Callback PROC
;;;934    */
;;;935    static void _MENU_Callback(WM_MESSAGE* pMsg) {
000cc8  b570              PUSH     {r4-r6,lr}
000cca  4604              MOV      r4,r0
;;;936      MENU_Handle hObj;
;;;937      MENU_Obj* pObj;
;;;938      hObj = pMsg->hWin;
000ccc  f9b46004          LDRSH    r6,[r4,#4]
;;;939      if (pMsg->MsgId != WM_PID_STATE_CHANGED) {
000cd0  6820              LDR      r0,[r4,#0]
000cd2  2811              CMP      r0,#0x11
000cd4  d005              BEQ      |L1.3298|
;;;940        /* Let widget handle the standard messages */
;;;941        if (WIDGET_HandleActive(hObj, pMsg) == 0) {
000cd6  4621              MOV      r1,r4
000cd8  4630              MOV      r0,r6
000cda  f7fffffe          BL       WIDGET_HandleActive
000cde  b900              CBNZ     r0,|L1.3298|
                  |L1.3296|
;;;942          return;
;;;943        }
;;;944      }
;;;945      pObj = (MENU_Obj*) GUI_ALLOC_h2p(hObj);
;;;946      switch (pMsg->MsgId) {
;;;947      case WM_MENU:
;;;948        _OnMenu(hObj, pObj, pMsg);
;;;949        return;     /* Message handled, do not call WM_DefaultProc() here. */
;;;950      case WM_TOUCH:
;;;951        if (_OnTouch(hObj, pObj, pMsg)) {
;;;952          _ForwardPIDMsgToOwner(hObj, pObj, pMsg);
;;;953        }
;;;954        break;
;;;955    #if (GUI_SUPPORT_MOUSE)
;;;956      case WM_MOUSEOVER:
;;;957        if (_OnMouseOver(hObj, pObj, pMsg)) {
;;;958          _ForwardPIDMsgToOwner(hObj, pObj, pMsg);
;;;959        }
;;;960        break;
;;;961    #endif
;;;962      case WM_PAINT:
;;;963        _OnPaint(hObj, pObj);
;;;964        break;
;;;965      case WM_DELETE:
;;;966        GUI_ARRAY_Delete(&pObj->ItemArray);
;;;967        break;      /* No return here ... WM_DefaultProc needs to be called */
;;;968      }
;;;969      WM_DefaultProc(pMsg);
;;;970    }
000ce0  bd70              POP      {r4-r6,pc}
                  |L1.3298|
000ce2  4630              MOV      r0,r6                 ;945
000ce4  f7fffffe          BL       GUI_ALLOC_h2p
000ce8  4605              MOV      r5,r0                 ;945
000cea  6820              LDR      r0,[r4,#0]            ;946
000cec  280b              CMP      r0,#0xb               ;946
000cee  d01c              BEQ      |L1.3370|
000cf0  280c              CMP      r0,#0xc               ;946
000cf2  d009              BEQ      |L1.3336|
000cf4  280f              CMP      r0,#0xf               ;946
000cf6  d013              BEQ      |L1.3360|
000cf8  282c              CMP      r0,#0x2c              ;946
000cfa  d11b              BNE      |L1.3380|
000cfc  4622              MOV      r2,r4                 ;948
000cfe  4629              MOV      r1,r5                 ;948
000d00  4630              MOV      r0,r6                 ;948
000d02  f7fffffe          BL       _OnMenu
000d06  e7eb              B        |L1.3296|
                  |L1.3336|
000d08  4622              MOV      r2,r4                 ;951
000d0a  4629              MOV      r1,r5                 ;951
000d0c  4630              MOV      r0,r6                 ;951
000d0e  f7fffffe          BL       _OnTouch
000d12  b120              CBZ      r0,|L1.3358|
000d14  4622              MOV      r2,r4                 ;952
000d16  4629              MOV      r1,r5                 ;952
000d18  4630              MOV      r0,r6                 ;952
000d1a  f7fffffe          BL       _ForwardPIDMsgToOwner
                  |L1.3358|
000d1e  e009              B        |L1.3380|
                  |L1.3360|
000d20  4629              MOV      r1,r5                 ;963
000d22  4630              MOV      r0,r6                 ;963
000d24  f7fffffe          BL       _OnPaint
000d28  e004              B        |L1.3380|
                  |L1.3370|
000d2a  f1050058          ADD      r0,r5,#0x58           ;966
000d2e  f7fffffe          BL       GUI_ARRAY_Delete
000d32  bf00              NOP                            ;967
                  |L1.3380|
000d34  bf00              NOP                            ;954
000d36  4620              MOV      r0,r4                 ;969
000d38  f7fffffe          BL       WM_DefaultProc
000d3c  bf00              NOP      
000d3e  e7cf              B        |L1.3296|
;;;971    
                          ENDP

                  MENU_CreateEx PROC
;;;981    */
;;;982    MENU_Handle MENU_CreateEx(int x0, int y0, int xSize, int ySize, WM_HWIN hParent, int WinFlags, int ExFlags, int Id) {
000d40  e92d4fff          PUSH     {r0-r11,lr}
000d44  b085              SUB      sp,sp,#0x14
000d46  4681              MOV      r9,r0
000d48  468a              MOV      r10,r1
000d4a  4616              MOV      r6,r2
000d4c  461f              MOV      r7,r3
000d4e  f8ddb048          LDR      r11,[sp,#0x48]
000d52  9d14              LDR      r5,[sp,#0x50]
;;;983      MENU_Handle hObj;
;;;984      /* Create the window */
;;;985      hObj = WM_CreateWindowAsChild(x0, y0, xSize, ySize, hParent, WM_CF_SHOW | WM_CF_STAYONTOP | WinFlags, &_MENU_Callback,
000d54  2350              MOVS     r3,#0x50
000d56  4a73              LDR      r2,|L1.3876|
000d58  9813              LDR      r0,[sp,#0x4c]
000d5a  b280              UXTH     r0,r0
000d5c  f040010a          ORR      r1,r0,#0xa
000d60  e9cdb100          STRD     r11,r1,[sp,#0]
000d64  e9cd2302          STRD     r2,r3,[sp,#8]
000d68  463b              MOV      r3,r7
000d6a  4632              MOV      r2,r6
000d6c  4651              MOV      r1,r10
000d6e  4648              MOV      r0,r9
000d70  f7fffffe          BL       WM_CreateWindowAsChild
000d74  4680              MOV      r8,r0
;;;986                                    sizeof(MENU_Obj) - sizeof(WM_Obj));
;;;987      if (hObj) {
000d76  f1b80f00          CMP      r8,#0
000d7a  d036              BEQ      |L1.3562|
;;;988        MENU_Obj* pObj;
;;;989        WM_LOCK();
000d7c  f7fffffe          BL       GUI_Lock
;;;990        pObj = (MENU_Obj*)GUI_ALLOC_h2p(hObj);
000d80  4640              MOV      r0,r8
000d82  f7fffffe          BL       GUI_ALLOC_h2p
000d86  4604              MOV      r4,r0
;;;991         /* Init sub-classes */
;;;992        GUI_ARRAY_CREATE(&pObj->ItemArray);
;;;993        /* init widget specific variables */
;;;994        WIDGET__Init(&pObj->Widget, Id, WIDGET_STATE_FOCUSSABLE);
000d88  2210              MOVS     r2,#0x10
000d8a  4620              MOV      r0,r4
000d8c  9915              LDR      r1,[sp,#0x54]
000d8e  f7fffffe          BL       WIDGET__Init
;;;995        /* init member variables */
;;;996        if (ExFlags & MENU_SF_OPEN_ON_POINTEROVER) {
000d92  f0150f02          TST      r5,#2
000d96  d002              BEQ      |L1.3486|
;;;997          ExFlags |= MENU_SF_ACTIVE;
000d98  f0450540          ORR      r5,r5,#0x40
000d9c  e001              B        |L1.3490|
                  |L1.3486|
;;;998        } else {
;;;999          ExFlags &= ~(MENU_SF_ACTIVE);
000d9e  f0250540          BIC      r5,r5,#0x40
                  |L1.3490|
;;;1000       }
;;;1001       pObj->Props           = MENU__DefaultProps;
000da2  2230              MOVS     r2,#0x30
000da4  4960              LDR      r1,|L1.3880|
000da6  f1040028          ADD      r0,r4,#0x28
000daa  f7fffffe          BL       __aeabi_memcpy4
;;;1002       pObj->Flags           = ExFlags;
000dae  f8a4505e          STRH     r5,[r4,#0x5e]
;;;1003       pObj->Width           = ((xSize > 0) ? xSize : 0);
000db2  2e00              CMP      r6,#0
000db4  dd01              BLE      |L1.3514|
000db6  4630              MOV      r0,r6
000db8  e000              B        |L1.3516|
                  |L1.3514|
000dba  2000              MOVS     r0,#0
                  |L1.3516|
000dbc  6660              STR      r0,[r4,#0x64]
;;;1004       pObj->Height          = ((ySize > 0) ? ySize : 0);
000dbe  2f00              CMP      r7,#0
000dc0  dd01              BLE      |L1.3526|
000dc2  4638              MOV      r0,r7
000dc4  e000              B        |L1.3528|
                  |L1.3526|
000dc6  2000              MOVS     r0,#0
                  |L1.3528|
000dc8  66a0              STR      r0,[r4,#0x68]
;;;1005       pObj->Sel             = -1;
000dca  f04f30ff          MOV      r0,#0xffffffff
000dce  66e0              STR      r0,[r4,#0x6c]
;;;1006       pObj->hOwner          = 0;
000dd0  2000              MOVS     r0,#0
000dd2  f8a4005c          STRH     r0,[r4,#0x5c]
;;;1007       pObj->IsSubmenuActive = 0;
000dd6  f8840060          STRB     r0,[r4,#0x60]
;;;1008       WIDGET_SetEffect(hObj, MENU__pDefaultEffect);
000dda  4854              LDR      r0,|L1.3884|
000ddc  6801              LDR      r1,[r0,#0]  ; MENU__pDefaultEffect
000dde  4640              MOV      r0,r8
000de0  f7fffffe          BL       WIDGET_SetEffect
;;;1009       INIT_ID(pObj);
;;;1010       WM_UNLOCK();
000de4  f7fffffe          BL       GUI_Unlock
;;;1011     } else {
000de8  bf00              NOP      
                  |L1.3562|
;;;1012       GUI_DEBUG_ERROROUT_IF(hObj==0, "MENU_CreateEx failed")
;;;1013     }
;;;1014     return hObj;
000dea  4640              MOV      r0,r8
;;;1015   }
000dec  b009              ADD      sp,sp,#0x24
000dee  e8bd8ff0          POP      {r4-r11,pc}
;;;1016   
                          ENDP

                  MENU__RecalcTextWidthOfItems PROC
;;;1044   */
;;;1045   void MENU__RecalcTextWidthOfItems(MENU_Obj* pObj) {
000df2  e92d41f0          PUSH     {r4-r8,lr}
000df6  4604              MOV      r4,r0
;;;1046     const GUI_FONT GUI_UNI_PTR* pOldFont;
;;;1047     MENU_ITEM* pItem;
;;;1048     unsigned i, NumItems;
;;;1049     NumItems = MENU__GetNumItems(pObj);
000df8  4620              MOV      r0,r4
000dfa  f7fffffe          BL       MENU__GetNumItems
000dfe  4680              MOV      r8,r0
;;;1050     pOldFont  = GUI_SetFont(pObj->Props.pFont);
000e00  6d60              LDR      r0,[r4,#0x54]
000e02  f7fffffe          BL       GUI_SetFont
000e06  4607              MOV      r7,r0
;;;1051     for (i = 0; i < NumItems; i++) {
000e08  2600              MOVS     r6,#0
000e0a  e00b              B        |L1.3620|
                  |L1.3596|
;;;1052       pItem = (MENU_ITEM*)GUI_ARRAY_GetpItem(&pObj->ItemArray, i);
000e0c  4631              MOV      r1,r6
000e0e  f1040058          ADD      r0,r4,#0x58
000e12  f7fffffe          BL       GUI_ARRAY_GetpItem
000e16  4605              MOV      r5,r0
;;;1053       pItem->TextWidth = GUI_GetStringDistX(pItem->acText);
000e18  f105000c          ADD      r0,r5,#0xc
000e1c  f7fffffe          BL       GUI_GetStringDistX
000e20  60a8              STR      r0,[r5,#8]
000e22  1c76              ADDS     r6,r6,#1              ;1051
                  |L1.3620|
000e24  4546              CMP      r6,r8                 ;1051
000e26  d3f1              BCC      |L1.3596|
;;;1054     }
;;;1055     GUI_SetFont(pOldFont);
000e28  4638              MOV      r0,r7
000e2a  f7fffffe          BL       GUI_SetFont
;;;1056   }
000e2e  e8bd81f0          POP      {r4-r8,pc}
;;;1057   
                          ENDP

                  MENU__SetItem PROC
;;;1073   */
;;;1074   char MENU__SetItem(MENU_Handle hObj, MENU_Obj* pObj, unsigned Index, const MENU_ITEM_DATA* pItemData) {
000e32  e92d47ff          PUSH     {r0-r10,lr}
000e36  4607              MOV      r7,r0
000e38  460d              MOV      r5,r1
000e3a  4690              MOV      r8,r2
000e3c  461c              MOV      r4,r3
;;;1075     MENU_ITEM Item = {0};
000e3e  2000              MOVS     r0,#0
000e40  9000              STR      r0,[sp,#0]
000e42  9001              STR      r0,[sp,#4]
000e44  9002              STR      r0,[sp,#8]
000e46  9003              STR      r0,[sp,#0xc]
;;;1076     const char* pText;
;;;1077     pText = pItemData->pText;
000e48  6826              LDR      r6,[r4,#0]
;;;1078     if (!pText) {
000e4a  b906              CBNZ     r6,|L1.3662|
;;;1079       pText = "";
000e4c  a638              ADR      r6,|L1.3888|
                  |L1.3662|
;;;1080     }
;;;1081     Item.Id        = pItemData->Id;
000e4e  88a0              LDRH     r0,[r4,#4]
000e50  f8ad0002          STRH     r0,[sp,#2]
;;;1082     Item.Flags     = pItemData->Flags;
000e54  88e0              LDRH     r0,[r4,#6]
000e56  f8ad0004          STRH     r0,[sp,#4]
;;;1083     Item.hSubmenu  = pItemData->hSubmenu;
000e5a  8920              LDRH     r0,[r4,#8]
000e5c  f8ad0000          STRH     r0,[sp,#0]
;;;1084     Item.TextWidth = _CalcTextWidth(pObj, pText);
000e60  4631              MOV      r1,r6
000e62  4628              MOV      r0,r5
000e64  f7fffffe          BL       _CalcTextWidth
000e68  9002              STR      r0,[sp,#8]
;;;1085     if (Item.Flags & MENU_IF_SEPARATOR) {
000e6a  f8bd0004          LDRH     r0,[sp,#4]
000e6e  f0100f02          TST      r0,#2
000e72  d002              BEQ      |L1.3706|
;;;1086       Item.hSubmenu = 0;   /* Ensures that no separator is a submenu */
000e74  2000              MOVS     r0,#0
000e76  f8ad0000          STRH     r0,[sp,#0]
                  |L1.3706|
;;;1087     }
;;;1088     if (GUI_ARRAY_SetItem(&pObj->ItemArray, Index, &Item, sizeof(MENU_ITEM) + strlen(pText)) != 0) {
000e7a  4630              MOV      r0,r6
000e7c  f7fffffe          BL       strlen
000e80  f1000910          ADD      r9,r0,#0x10
000e84  464b              MOV      r3,r9
000e86  466a              MOV      r2,sp
000e88  4641              MOV      r1,r8
000e8a  f1050058          ADD      r0,r5,#0x58
000e8e  f7fffffe          BL       GUI_ARRAY_SetItem
000e92  b198              CBZ      r0,|L1.3772|
;;;1089       MENU_ITEM* pItem = (MENU_ITEM*)GUI_ARRAY_GetpItem(&pObj->ItemArray, Index);
000e94  4641              MOV      r1,r8
000e96  f1050058          ADD      r0,r5,#0x58
000e9a  f7fffffe          BL       GUI_ARRAY_GetpItem
000e9e  4681              MOV      r9,r0
;;;1090       strcpy(pItem->acText, pText);
000ea0  4631              MOV      r1,r6
000ea2  f109000c          ADD      r0,r9,#0xc
000ea6  f7fffffe          BL       strcpy
;;;1091       MENU_SetOwner(Item.hSubmenu, hObj);
000eaa  f9bd0000          LDRSH    r0,[sp,#0]
000eae  4639              MOV      r1,r7
000eb0  f7fffffe          BL       MENU_SetOwner
;;;1092       return 1;
000eb4  2001              MOVS     r0,#1
                  |L1.3766|
;;;1093     }
;;;1094     return 0;
;;;1095   }
000eb6  b004              ADD      sp,sp,#0x10
000eb8  e8bd87f0          POP      {r4-r10,pc}
                  |L1.3772|
000ebc  2000              MOVS     r0,#0                 ;1094
000ebe  e7fa              B        |L1.3766|
;;;1096   
                          ENDP

                  MENU__SetItemFlags PROC
;;;1100   */
;;;1101   void MENU__SetItemFlags(MENU_Obj* pObj, unsigned Index, U16 Mask, U16 Flags) {
000ec0  e92d41f0          PUSH     {r4-r8,lr}
000ec4  4605              MOV      r5,r0
000ec6  4688              MOV      r8,r1
000ec8  4616              MOV      r6,r2
000eca  461f              MOV      r7,r3
;;;1102     MENU_ITEM* pItem = (MENU_ITEM*)GUI_ARRAY_GetpItem(&pObj->ItemArray, Index);
000ecc  4641              MOV      r1,r8
000ece  f1050058          ADD      r0,r5,#0x58
000ed2  f7fffffe          BL       GUI_ARRAY_GetpItem
000ed6  4604              MOV      r4,r0
;;;1103     pItem->Flags &= ~Mask;
000ed8  88a0              LDRH     r0,[r4,#4]
000eda  43b0              BICS     r0,r0,r6
000edc  80a0              STRH     r0,[r4,#4]
;;;1104     pItem->Flags |= Flags;
000ede  88a0              LDRH     r0,[r4,#4]
000ee0  4338              ORRS     r0,r0,r7
000ee2  80a0              STRH     r0,[r4,#4]
;;;1105   }
000ee4  e8bd81f0          POP      {r4-r8,pc}
;;;1106   
                          ENDP

                  MENU_AddItem PROC
;;;1138   */
;;;1139   void MENU_AddItem(MENU_Handle hObj, const MENU_ITEM_DATA* pItemData) {
000ee8  e92d41f0          PUSH     {r4-r8,lr}
000eec  4606              MOV      r6,r0
000eee  460d              MOV      r5,r1
;;;1140     if (hObj && pItemData) {
000ef0  b396              CBZ      r6,|L1.3928|
000ef2  b38d              CBZ      r5,|L1.3928|
;;;1141       MENU_Obj* pObj;
;;;1142       WM_LOCK();
000ef4  f7fffffe          BL       GUI_Lock
;;;1143       pObj = MENU_H2P(hObj);
000ef8  4630              MOV      r0,r6
000efa  f7fffffe          BL       GUI_ALLOC_h2p
000efe  4604              MOV      r4,r0
;;;1144       if (pObj) {
000f00  b33c              CBZ      r4,|L1.3922|
;;;1145         if (GUI_ARRAY_AddItem(&pObj->ItemArray, NULL, 0) == 0) {
000f02  2200              MOVS     r2,#0
000f04  4611              MOV      r1,r2
000f06  f1040058          ADD      r0,r4,#0x58
000f0a  f7fffffe          BL       GUI_ARRAY_AddItem
000f0e  bb00              CBNZ     r0,|L1.3922|
;;;1146           unsigned Index;
;;;1147           Index = MENU__GetNumItems(pObj) - 1;
000f10  4620              MOV      r0,r4
000f12  f7fffffe          BL       MENU__GetNumItems
000f16  1e47              SUBS     r7,r0,#1
;;;1148           if (MENU__SetItem(hObj, pObj, Index, pItemData) == 0) {
000f18  462b              MOV      r3,r5
000f1a  463a              MOV      r2,r7
000f1c  4621              MOV      r1,r4
000f1e  e009              B        |L1.3892|
                  |L1.3872|
                          DCD      0x007c7c7c
                  |L1.3876|
                          DCD      _MENU_Callback
                  |L1.3880|
                          DCD      MENU__DefaultProps
                  |L1.3884|
                          DCD      MENU__pDefaultEffect
                  |L1.3888|
000f30  00                DCB      0
000f31  00                DCB      0
000f32  00                DCB      0
000f33  00                DCB      0
                  |L1.3892|
000f34  4630              MOV      r0,r6
000f36  f7fffffe          BL       MENU__SetItem
000f3a  b928              CBNZ     r0,|L1.3912|
;;;1149             GUI_ARRAY_DeleteItem(&pObj->ItemArray, Index);
000f3c  4639              MOV      r1,r7
000f3e  f1040058          ADD      r0,r4,#0x58
000f42  f7fffffe          BL       GUI_ARRAY_DeleteItem
000f46  e003              B        |L1.3920|
                  |L1.3912|
;;;1150           } else {
;;;1151             MENU__ResizeMenu(hObj, pObj);
000f48  4621              MOV      r1,r4
000f4a  4630              MOV      r0,r6
000f4c  f7fffffe          BL       MENU__ResizeMenu
                  |L1.3920|
;;;1152           }
;;;1153         }
000f50  bf00              NOP      
                  |L1.3922|
;;;1154       }
;;;1155       WM_UNLOCK();
000f52  f7fffffe          BL       GUI_Unlock
;;;1156     }
000f56  bf00              NOP      
                  |L1.3928|
;;;1157   }
000f58  e8bd81f0          POP      {r4-r8,pc}
;;;1158   
                          ENDP


                          AREA ||.data||, DATA, ALIGN=2

                  MENU__DefaultProps
                          DCD      0x00000000
                          DCD      0x00ffffff
                          DCD      0x007c7c7c
                          DCD      0x00d3d3d3
                          DCD      0x00ffffff
                          DCD      0x00d3d3d3
                          DCD      0x00980000
                          DCD      0x00d3d3d3
                          DCD      0x00980000
                          DCD      0x007c7c7c
000028  04040202          DCB      0x04,0x04,0x02,0x02
                          DCD      GUI_Font13_1
                  MENU__pDefaultEffect
                          DCD      WIDGET_Effect_3D1L
